
C:/Users/pavmeh/Desktop/fpga-speech-recognition/software/pushbuttons_isr.elf:     file format elf32-littlenios2
C:/Users/pavmeh/Desktop/fpga-speech-recognition/software/pushbuttons_isr.elf
architecture: nios2, flags 0x00000112:
EXEC_P, HAS_SYMS, D_PAGED
start address 0x00000168

Program Header:
    LOAD off    0x00001000 vaddr 0x00000000 paddr 0x00000000 align 2**12
         filesz 0x00000020 memsz 0x00000020 flags r-x
    LOAD off    0x00001020 vaddr 0x00000020 paddr 0x00000020 align 2**12
         filesz 0x0000fc8c memsz 0x0000fc8c flags r-x
    LOAD off    0x00010cac vaddr 0x0000fcac paddr 0x00019bdc align 2**12
         filesz 0x00009f30 memsz 0x00009f30 flags rw-
    LOAD off    0x0001bb0c vaddr 0x00023b0c paddr 0x00023b0c align 2**12
         filesz 0x00000000 memsz 0x00083b08 flags rw-

Sections:
Idx Name          Size      VMA       LMA       File off  Algn
  0 .entry        00000020  00000000  00000000  00001000  2**5
                  CONTENTS, ALLOC, LOAD, READONLY, CODE
  1 .exceptions   00000148  00000020  00000020  00001020  2**2
                  CONTENTS, ALLOC, LOAD, READONLY, CODE
  2 .text         0000f5b4  00000168  00000168  00001168  2**2
                  CONTENTS, ALLOC, LOAD, READONLY, CODE
  3 .rodata       00000590  0000f71c  0000f71c  0001071c  2**2
                  CONTENTS, ALLOC, LOAD, READONLY, DATA
  4 .rwdata       00009f30  0000fcac  00019bdc  00010cac  2**2
                  CONTENTS, ALLOC, LOAD, DATA, SMALL_DATA
  5 .bss          00083d78  00023b0c  00023b0c  0001bb0c  2**2
                  ALLOC, SMALL_DATA
  6 .comment      00000026  00000000  00000000  0001abdc  2**0
                  CONTENTS, READONLY
  7 .debug_aranges 00001058  00000000  00000000  0001ac08  2**3
                  CONTENTS, READONLY, DEBUGGING
  8 .debug_pubnames 00002631  00000000  00000000  0001bc60  2**0
                  CONTENTS, READONLY, DEBUGGING
  9 .debug_info   000275a4  00000000  00000000  0001e291  2**0
                  CONTENTS, READONLY, DEBUGGING
 10 .debug_abbrev 0000a24b  00000000  00000000  00045835  2**0
                  CONTENTS, READONLY, DEBUGGING
 11 .debug_line   000194ef  00000000  00000000  0004fa80  2**0
                  CONTENTS, READONLY, DEBUGGING
 12 .debug_frame  00002448  00000000  00000000  00068f70  2**2
                  CONTENTS, READONLY, DEBUGGING
 13 .debug_str    00004c41  00000000  00000000  0006b3b8  2**0
                  CONTENTS, READONLY, DEBUGGING
 14 .debug_loc    0000f2af  00000000  00000000  0006fff9  2**0
                  CONTENTS, READONLY, DEBUGGING
 15 .debug_alt_sim_info 00000020  00000000  00000000  0007f2a8  2**2
                  CONTENTS, READONLY, DEBUGGING
 16 .debug_ranges 00000b28  00000000  00000000  0007f2c8  2**3
                  CONTENTS, READONLY, DEBUGGING
 17 .thread_model 00000003  00000000  00000000  00084d49  2**0
                  CONTENTS, READONLY
 18 .cpu          00000003  00000000  00000000  00084d4c  2**0
                  CONTENTS, READONLY
 19 .qsys         00000001  00000000  00000000  00084d4f  2**0
                  CONTENTS, READONLY
 20 .simulation_enabled 00000001  00000000  00000000  00084d50  2**0
                  CONTENTS, READONLY
 21 .sysid_hash   00000004  00000000  00000000  00084d51  2**0
                  CONTENTS, READONLY
 22 .sysid_base   00000004  00000000  00000000  00084d55  2**0
                  CONTENTS, READONLY
 23 .sysid_time   00000004  00000000  00000000  00084d59  2**0
                  CONTENTS, READONLY
 24 .stderr_dev   00000009  00000000  00000000  00084d5d  2**0
                  CONTENTS, READONLY
 25 .stdin_dev    00000009  00000000  00000000  00084d66  2**0
                  CONTENTS, READONLY
 26 .stdout_dev   00000009  00000000  00000000  00084d6f  2**0
                  CONTENTS, READONLY
 27 .sopc_system_name 0000000b  00000000  00000000  00084d78  2**0
                  CONTENTS, READONLY
 28 .sopcinfo     0018eb10  00000000  00000000  00084d83  2**0
                  CONTENTS, READONLY
SYMBOL TABLE:
00000000 l    d  .entry	00000000 .entry
00000020 l    d  .exceptions	00000000 .exceptions
00000168 l    d  .text	00000000 .text
0000f71c l    d  .rodata	00000000 .rodata
0000fcac l    d  .rwdata	00000000 .rwdata
00023b0c l    d  .bss	00000000 .bss
00000000 l    d  .comment	00000000 .comment
00000000 l    d  .debug_aranges	00000000 .debug_aranges
00000000 l    d  .debug_pubnames	00000000 .debug_pubnames
00000000 l    d  .debug_info	00000000 .debug_info
00000000 l    d  .debug_abbrev	00000000 .debug_abbrev
00000000 l    d  .debug_line	00000000 .debug_line
00000000 l    d  .debug_frame	00000000 .debug_frame
00000000 l    d  .debug_str	00000000 .debug_str
00000000 l    d  .debug_loc	00000000 .debug_loc
00000000 l    d  .debug_alt_sim_info	00000000 .debug_alt_sim_info
00000000 l    d  .debug_ranges	00000000 .debug_ranges
000001a0 l       .text	00000000 alt_after_alt_main
00000000 l    df *ABS*	00000000 alt_irq_handler.c
00000000 l    df *ABS*	00000000 audio_isr.c
00023b5c l     O .bss	00000200 left_buffer
00023d5c l     O .bss	00000200 right_buffer
00023b0c l     O .bss	00000004 startVal
00000000 l    df *ABS*	00000000 kiss_fft.c
00000000 l    df *ABS*	00000000 audio.c
00019b38 l     O .rwdata	00000004 audio_ptr
00019b34 l     O .rwdata	00000004 fifospace_ptr
00019b2c l     O .rwdata	00000004 leftdata_ptr
00019b30 l     O .rwdata	00000004 rightdata_ptr
00023b10 l     O .bss	00000004 audio_isr
00000000 l    df *ABS*	00000000 char_lcd.c
00000000 l    df *ABS*	00000000 green_leds.c
00019b44 l     O .rwdata	00000004 data_reg
00000000 l    df *ABS*	00000000 hex.c
00019b4c l     O .rwdata	00000004 hex_3to0
00019b48 l     O .rwdata	00000004 hex_7to4
00000770 l     F .text	00000074 lookup_16
0000f71c l     O .rodata	00000010 table
000007e4 l     F .text	00000098 lookup_10
00000000 l    df *ABS*	00000000 lcd.c
00019b5c l     O .rwdata	00000004 status_reg
00019b50 l     O .rwdata	00000004 back_buff_reg
00019b58 l     O .rwdata	00000004 front_buff_reg
00019b54 l     O .rwdata	00000004 char_buff_base
00000000 l    df *ABS*	00000000 pushbuttons.c
00019b68 l     O .rwdata	00000004 data_reg
00019b64 l     O .rwdata	00000004 interrupt_mask_reg
00019b60 l     O .rwdata	00000004 edge_capture_reg
00000000 l    df *ABS*	00000000 red_leds.c
00019b6c l     O .rwdata	00000004 data_reg
00000000 l    df *ABS*	00000000 rs232.c
00000000 l    df *ABS*	00000000 switches.c
00019b78 l     O .rwdata	00000004 data_reg
00019b74 l     O .rwdata	00000004 interrupt_mask_reg
00019b70 l     O .rwdata	00000004 edge_capture_reg
00000000 l    df *ABS*	00000000 vga.c
00019b84 l     O .rwdata	00000004 status_reg
00019b88 l     O .rwdata	00000004 back_buff_reg
00019b80 l     O .rwdata	00000004 front_buff_reg
00019b7c l     O .rwdata	00000004 char_buff_base
00000000 l    df *ABS*	00000000 main.c
00000e50 l     F .text	00000254 fft_mag_window
000012c0 l     F .text	00000078 clearLCDChar
00001338 l     F .text	00000820 mfcc
00023f5c l     O .bss	00020000 yesBuffer
00043f5c l     O .bss	00020000 noBuffer
00019b8c l     O .rwdata	00000001 bruteForce
00063f5c l     O .bss	00020000 sampleBuffer
00083f5c l     O .bss	000101f8 windowedSampleBuffer
00094154 l     O .bss	00003398 sampleMFCC
00000000 l    df *ABS*	00000000 pushbuttons_isr.c
00000000 l    df *ABS*	00000000 switches_isr.c
00000000 l    df *ABS*	00000000 system_globals.c
00000000 l    df *ABS*	00000000 w_log10.c
00000000 l    df *ABS*	00000000 w_sqrt.c
00000000 l    df *ABS*	00000000 e_log10.c
00000000 l    df *ABS*	00000000 e_sqrt.c
00000000 l    df *ABS*	00000000 s_isnand.c
00000000 l    df *ABS*	00000000 s_lib_ver.c
00000000 l    df *ABS*	00000000 s_matherr.c
00000000 l    df *ABS*	00000000 s_nan.c
00000000 l    df *ABS*	00000000 e_log.c
00000000 l    df *ABS*	00000000 fp-bit.c
00000000 l    df *ABS*	00000000 dp-bit.c
00003198 l     F .text	00000410 _fpadd_parts
00000000 l    df *ABS*	00000000 dp-bit.c
00000000 l    df *ABS*	00000000 dp-bit.c
00000000 l    df *ABS*	00000000 dp-bit.c
00000000 l    df *ABS*	00000000 dp-bit.c
00000000 l    df *ABS*	00000000 dp-bit.c
00000000 l    df *ABS*	00000000 dp-bit.c
00000000 l    df *ABS*	00000000 dp-bit.c
00000000 l    df *ABS*	00000000 dp-bit.c
00000000 l    df *ABS*	00000000 dp-bit.c
00000000 l    df *ABS*	00000000 dp-bit.c
00000000 l    df *ABS*	00000000 libgcc2.c
00000000 l    df *ABS*	00000000 libgcc2.c
00000000 l    df *ABS*	00000000 fp-bit.c
00000000 l    df *ABS*	00000000 dp-bit.c
00000000 l    df *ABS*	00000000 dp-bit.c
00000000 l    df *ABS*	00000000 dp-bit.c
00000000 l    df *ABS*	00000000 libgcc2.c
00000000 l    df *ABS*	00000000 errno.c
00000000 l    df *ABS*	00000000 impure.c
00017cdc l     O .rwdata	00000400 impure_data
00000000 l    df *ABS*	00000000 malloc.c
00000000 l    df *ABS*	00000000 mallocr.c
00000000 l    df *ABS*	00000000 printf.c
00000000 l    df *ABS*	00000000 puts.c
00000000 l    df *ABS*	00000000 sbrkr.c
00000000 l    df *ABS*	00000000 snprintf.c
00000000 l    df *ABS*	00000000 strlen.c
00000000 l    df *ABS*	00000000 vfprintf.c
0000527c l     F .text	00000058 __sprint_r
0000f952 l     O .rodata	00000010 blanks.3452
0000f942 l     O .rodata	00000010 zeroes.3453
00000000 l    df *ABS*	00000000 wsetup.c
00000000 l    df *ABS*	00000000 dtoa.c
000072e0 l     F .text	00000218 quorem
00000000 l    df *ABS*	00000000 fflush.c
00000000 l    df *ABS*	00000000 findfp.c
00008cdc l     F .text	00000058 std
00008de8 l     F .text	00000008 __fp_lock
00008df0 l     F .text	00000008 __fp_unlock
00000000 l    df *ABS*	00000000 mallocr.c
00000000 l    df *ABS*	00000000 fvwrite.c
00000000 l    df *ABS*	00000000 fwalk.c
00000000 l    df *ABS*	00000000 int_errno.c
00000000 l    df *ABS*	00000000 locale.c
00019ba8 l     O .rwdata	00000004 charset
0000f984 l     O .rodata	00000030 lconv
00000000 l    df *ABS*	00000000 makebuf.c
00000000 l    df *ABS*	00000000 memchr.c
00000000 l    df *ABS*	00000000 memcpy.c
00000000 l    df *ABS*	00000000 memmove.c
00000000 l    df *ABS*	00000000 memset.c
00000000 l    df *ABS*	00000000 mprec.c
0000facc l     O .rodata	0000000c p05.2458
00000000 l    df *ABS*	00000000 mallocr.c
00000000 l    df *ABS*	00000000 s_isinfd.c
00000000 l    df *ABS*	00000000 stdio.c
00000000 l    df *ABS*	00000000 strcmp.c
00000000 l    df *ABS*	00000000 writer.c
00000000 l    df *ABS*	00000000 mallocr.c
00000000 l    df *ABS*	00000000 closer.c
00000000 l    df *ABS*	00000000 fclose.c
00000000 l    df *ABS*	00000000 fstatr.c
00000000 l    df *ABS*	00000000 isattyr.c
00000000 l    df *ABS*	00000000 lseekr.c
00000000 l    df *ABS*	00000000 readr.c
00000000 l    df *ABS*	00000000 libgcc2.c
00000000 l    df *ABS*	00000000 libgcc2.c
00000000 l    df *ABS*	00000000 dp-bit.c
00000000 l    df *ABS*	00000000 dp-bit.c
00000000 l    df *ABS*	00000000 dp-bit.c
00000000 l    df *ABS*	00000000 lib2-divmod.c
0000ca90 l     F .text	0000007c udivmodsi4
00000000 l    df *ABS*	00000000 alt_close.c
00000000 l    df *ABS*	00000000 alt_dcache_flush.c
00000000 l    df *ABS*	00000000 alt_dev.c
0000ccbc l     F .text	00000008 alt_dev_null_write
00000000 l    df *ABS*	00000000 alt_errno.c
00000000 l    df *ABS*	00000000 alt_fstat.c
00000000 l    df *ABS*	00000000 alt_irq_register.c
00000000 l    df *ABS*	00000000 alt_irq_vars.c
00000000 l    df *ABS*	00000000 alt_isatty.c
00000000 l    df *ABS*	00000000 alt_load.c
00000000 l    df *ABS*	00000000 alt_lseek.c
00000000 l    df *ABS*	00000000 alt_main.c
00000000 l    df *ABS*	00000000 alt_malloc_lock.c
00000000 l    df *ABS*	00000000 alt_read.c
00000000 l    df *ABS*	00000000 alt_release_fd.c
00000000 l    df *ABS*	00000000 alt_sbrk.c
00019bc8 l     O .rwdata	00000004 heap_end
00000000 l    df *ABS*	00000000 alt_write.c
00000000 l    df *ABS*	00000000 alt_sys_init.c
00018698 l     O .rwdata	00001060 JTAG_UART
000196f8 l     O .rwdata	00000030 sgdma_rx
00019728 l     O .rwdata	00000030 sgdma_tx
00019758 l     O .rwdata	0000002c Accelerometer
00019784 l     O .rwdata	00000030 Camera_Config
000197b4 l     O .rwdata	00000030 OnBoard_AV
000197e4 l     O .rwdata	00000030 Audio
00019814 l     O .rwdata	0000002c Char_LCD_16x2
00019840 l     O .rwdata	0000002c IrDA
0001986c l     O .rwdata	0000002c Expansion_JP5
00019898 l     O .rwdata	0000002c Green_LEDs
000198c4 l     O .rwdata	0000002c HEX3_HEX0
000198f0 l     O .rwdata	0000002c HEX7_HEX4
0001991c l     O .rwdata	0000002c Pushbuttons
00019948 l     O .rwdata	0000002c Red_LEDs
00019974 l     O .rwdata	0000002c Slider_Switches
000199a0 l     O .rwdata	00000038 PS2_Port
000199d8 l     O .rwdata	00000038 PS2_Port_Dual
00019a10 l     O .rwdata	0000002c Serial_Port
00019a3c l     O .rwdata	00000034 USB
00019a70 l     O .rwdata	00000048 LCD_Char_Buffer
00019ab8 l     O .rwdata	00000048 VGA_Char_Buffer
00019b00 l     O .rwdata	0000002c SD_Card
00000000 l    df *ABS*	00000000 altera_avalon_jtag_uart_fd.c
00000000 l    df *ABS*	00000000 altera_avalon_jtag_uart_init.c
0000d658 l     F .text	00000054 altera_avalon_jtag_uart_timeout
0000d724 l     F .text	00000134 altera_avalon_jtag_uart_irq
00000000 l    df *ABS*	00000000 altera_avalon_jtag_uart_ioctl.c
00000000 l    df *ABS*	00000000 altera_avalon_jtag_uart_read.c
00000000 l    df *ABS*	00000000 altera_avalon_jtag_uart_write.c
00000000 l    df *ABS*	00000000 altera_avalon_sgdma.c
0000ddf4 l     F .text	00000068 alt_avalon_sgdma_irq
00000000 l    df *ABS*	00000000 altera_avalon_timer_sc.c
0000e224 l     F .text	0000003c alt_avalon_timer_sc_irq
00000000 l    df *ABS*	00000000 altera_up_avalon_character_lcd.c
00000000 l    df *ABS*	00000000 altera_up_avalon_irda.c
00000000 l    df *ABS*	00000000 altera_up_avalon_ps2.c
00000000 l    df *ABS*	00000000 altera_up_avalon_rs232.c
00000000 l    df *ABS*	00000000 altera_up_avalon_video_character_buffer_with_dma.c
00000000 l    df *ABS*	00000000 alt_alarm_start.c
00000000 l    df *ABS*	00000000 alt_dcache_flush_all.c
00000000 l    df *ABS*	00000000 alt_dev_llist_insert.c
00000000 l    df *ABS*	00000000 alt_find_dev.c
00000000 l    df *ABS*	00000000 alt_icache_flush_all.c
00000000 l    df *ABS*	00000000 alt_io_redirect.c
0000efb8 l     F .text	00000064 alt_open_fd
00000000 l    df *ABS*	00000000 alt_open.c
00000000 l    df *ABS*	00000000 alt_remap_uncached.c
00000000 l    df *ABS*	00000000 alt_tick.c
00000000 l    df *ABS*	00000000 altera_nios2_qsys_irq.c
00000000 l    df *ABS*	00000000 alt_find_file.c
00000000 l    df *ABS*	00000000 alt_get_fd.c
00000000 l    df *ABS*	00000000 alt_icache_flush.c
00000000 l    df *ABS*	00000000 exit.c
00000000 l    df *ABS*	00000000 memcmp.c
00000000 l    df *ABS*	00000000 __call_atexit.c
0000f550 l     F .text	00000004 register_fini
00000000 l    df *ABS*	00000000 alt_exit.c
000006d0 g     F .text	00000010 char_lcd_cursor_off
0000a358 g     F .text	00000094 _mprec_log10
0000067c g     F .text	0000002c char_lcd_move_cursor
00000d20 g     F .text	00000018 vga_set_front_buffer
0000a444 g     F .text	00000088 __any_on
0000bab0 g     F .text	00000070 _isatty_r
0000faa4 g     O .rodata	00000028 __mprec_tinytens
0000cfe0 g     F .text	00000050 alt_main
000167ec g     O .rwdata	00001450 TRIBANK
00004f74 g     F .text	000000a0 _puts_r
0000eaa0 g     F .text	0000001c alt_up_ps2_disable_read_interrupt
000a7514 g     O .bss	00000100 alt_irq
0000bb20 g     F .text	00000078 _lseek_r
000022f4 g     F .text	00000130 sqrt
00019bdc g       *ABS*	00000000 __flash_rwdata_start
0000e324 g     F .text	00000010 alt_up_character_lcd_send_cmd
00003cb8 g     F .text	00000088 __eqdf2
000006f0 g     F .text	00000010 char_lcd_shift_right
000a7614 g       *ABS*	00000000 __alt_heap_start
00004efc g     F .text	00000044 printf
00000aa0 g     F .text	00000060 lcd_draw_rectangle_back
0000dcc4 g     F .text	00000094 alt_avalon_sgdma_do_sync_transfer
0000b57c g     F .text	00000068 __sseek
00008d44 g     F .text	000000a4 __sinit
0000eca8 g     F .text	00000088 alt_up_char_buffer_string
0000e760 g     F .text	0000000c read_CE_bit
00009a1c g     F .text	00000084 _setlocale_r
00008e44 g     F .text	00000068 __sfmoreglue
0000d034 g     F .text	00000004 __malloc_unlock
0000e830 g     F .text	00000080 alt_up_ps2_read_data_byte_timeout
00000a08 g     F .text	00000038 lcd_write
0000eb4c g     F .text	00000080 alt_up_rs232_read_fd
00097514 g     O .bss	00010000 samples_for_fft
000008c0 g     F .text	00000044 hex_write_3to0
00000bcc g     F .text	0000000c red_leds_set
0000ed30 g     F .text	00000058 alt_up_char_buffer_draw
0000de5c g     F .text	0000012c alt_avalon_sgdma_construct_descriptor_burst
000009dc g     F .text	0000000c lcd_set_back_buffer
00009dd4 g     F .text	000000e0 memmove
000163dc g     O .rwdata	00000410 DCT_LIFTER
00008e34 g     F .text	00000010 _cleanup
00005098 g     F .text	000000bc snprintf
0000a4cc g     F .text	000000bc _Balloc
00023b14 g     O .bss	00000001 audio_ready
00000a40 g     F .text	00000060 lcd_draw_rectangle
00003d40 g     F .text	00000088 __gtdf2
00004784 g     F .text	00000010 __errno
0000e260 g     F .text	0000001c get_DDRAM_addr
00000000 g     F .entry	0000001c __reset
0000070c g     F .text	00000014 green_leds_update
0000e060 g     F .text	0000004c alt_avalon_sgdma_construct_stream_to_mem_desc_burst
00000020 g       *ABS*	00000000 __flash_exceptions_start
0000ba3c g     F .text	00000074 _fstat_r
00023b34 g     O .bss	00000004 errno
00004058 g     F .text	00000038 __make_dp
00000644 g     F .text	00000038 audio_init
00000dfc g     F .text	00000048 vga_char_buffer_clear
00023b20 g     O .bss	00000004 numRead
00000b48 g     F .text	0000000c lcd_get_backbuffer_addr
00023b4c g     O .bss	00000004 alt_argv
00021b2c g       *ABS*	00000000 _gp
000009c4 g     F .text	00000018 lcd_set_front_buffer
00023b1c g     O .bss	00000001 samples_for_fft_requested
000009e8 g     F .text	00000020 lcd_swap_buffers
00018518 g     O .rwdata	00000180 alt_fd_list
00000e44 g     F .text	0000000c signal_audio_ready
0000ef28 g     F .text	00000070 alt_find_dev
00009d34 g     F .text	000000a0 memcpy
0000e2f4 g     F .text	00000020 alt_up_character_lcd_write_fd
00000b54 g     F .text	0000000c pushbuttons_get_data
0000ed88 g     F .text	00000028 alt_up_char_buffer_clear
00008e28 g     F .text	0000000c _cleanup_r
00003f60 g     F .text	000000f8 __floatsidf
0000f01c g     F .text	00000098 alt_io_redirect
00003e50 g     F .text	00000088 __ltdf2
0000e68c g     F .text	0000007c alt_up_irda_write_fd
0000eb00 g     F .text	0000004c alt_up_rs232_read_data
00005014 g     F .text	00000014 puts
0000a2a8 g     F .text	000000b0 __ratio
0000dfd0 g     F .text	00000050 alt_avalon_sgdma_construct_mem_to_stream_desc_burst
0000e73c g     F .text	00000010 alt_up_irda_get_used_space_in_read_FIFO
0000d8cc g     F .text	00000168 altera_avalon_jtag_uart_read
000047a8 g     F .text	00000014 malloc
00004f40 g     F .text	00000034 _printf_r
0000cbcc g     F .text	00000008 __udivsi3
0000ce00 g     F .text	00000084 isatty
0000f9b4 g     O .rodata	000000c8 __mprec_tens
00023b18 g     O .bss	00000004 fft_cfg
000099f8 g     F .text	00000008 __locale_charset
00000ca0 g     F .text	00000010 switches_clear_edge_capture
0000e708 g     F .text	0000001c alt_up_irda_disable_read_interrupt
0000f468 g     F .text	0000003c alt_icache_flush
00023b28 g     O .bss	00000004 __malloc_top_pad
00000b78 g     F .text	0000000c pushbuttons_get_edge_capture
00000d9c g     F .text	00000060 vga_draw_rectangle
00019ba4 g     O .rwdata	00000004 __mb_cur_max
00009a00 g     F .text	0000000c _localeconv_r
0000abc4 g     F .text	0000003c __i2b
000093dc g     F .text	0000049c __sfvwrite_r
0000dc90 g     F .text	0000001c alt_avalon_sgdma_stop
00005028 g     F .text	00000070 _sbrk_r
00000904 g     F .text	0000008c hex_write
0000bb98 g     F .text	00000078 _read_r
00002424 g     F .text	00000218 __ieee754_log10
0000ccb8 g     F .text	00000004 alt_dcache_flush
000184e4 g     O .rwdata	0000000c __lc_ctype
00019bbc g     O .rwdata	00000004 alt_max_fd
0000ead4 g     F .text	0000000c alt_up_rs232_check_parity
00004584 g     F .text	00000138 __unpack_d
0000b918 g     F .text	00000110 _fclose_r
0000e76c g     F .text	00000008 read_num_bytes_available
00008ca8 g     F .text	00000034 fflush
00000434 g     F .text	000000d0 kiss_fft_alloc_twiddles
00023b2c g     O .bss	00000004 __malloc_max_sbrked_mem
0000cd44 g     F .text	000000bc alt_irq_register
0000e74c g     F .text	0000000c read_RI_bit
00003144 g     F .text	00000054 __extendsfdf2
00003628 g     F .text	00000074 __adddf3
00023b24 g     O .bss	00000001 working
0000a188 g     F .text	00000120 __b2d
0000c1ec g     F .text	000005b0 __umoddi3
0000cf48 g     F .text	00000098 lseek
00019b90 g     O .rwdata	00000004 __fdlib_version
00019b98 g     O .rwdata	00000004 _global_impure_ptr
0000af40 g     F .text	000005f4 _realloc_r
000a7614 g       *ABS*	00000000 __bss_end
00000c7c g     F .text	0000000c switches_set_interrupt_mask
0000dd58 g     F .text	0000009c alt_avalon_sgdma_do_async_transfer
000001b4 g     F .text	00000154 audio_isr
0000f28c g     F .text	000000ac alt_tick
0000bc10 g     F .text	000005dc __udivdi3
00000540 g     F .text	00000024 audio_clear_write_fifo
0000fa7c g     O .rodata	00000028 __mprec_bigtens
0000ae20 g     F .text	00000120 __s2b
0000c8fc g     F .text	00000194 __floatunsidf
0000a0a8 g     F .text	00000060 __mcmp
0c000000 g       *ABS*	00000000 __alt_mem_Flash_flash_data
0000e780 g     F .text	00000008 read_data_byte
00008e10 g     F .text	00000018 __fp_lock_all
0000f258 g     F .text	00000034 alt_alarm_stop
0000e758 g     F .text	00000008 read_RE_bit
08200000 g       *ABS*	00000000 __alt_mem_descriptor_memory
00023b44 g     O .bss	00000004 alt_irq_active
0000e664 g     F .text	00000010 alt_up_irda_get_available_space_in_write_FIFO
000000ec g     F .exceptions	0000007c alt_irq_handler
000184f0 g     O .rwdata	00000028 alt_dev_null
00000564 g     F .text	00000070 audio_read
000041a8 g     F .text	000000c8 __unpack_f
0000e334 g     F .text	0000001c alt_up_character_lcd_cursor_blink_on
0000e1b0 g     F .text	00000030 alt_avalon_sgdma_check_descriptor_status
0000e934 g     F .text	00000040 alt_up_ps2_write_data_byte
0000eeb4 g     F .text	00000004 alt_dcache_flush_all
00009f74 g     F .text	00000070 __hi0bits
00000c70 g     F .text	0000000c switches_get_positions
0000c824 g     F .text	000000d8 __fixdfsi
00000700 g     F .text	0000000c green_leds_set
00000d44 g     F .text	00000020 vga_swap_buffers
00019bdc g       *ABS*	00000000 __ram_rwdata_end
00019bb4 g     O .rwdata	00000008 alt_dev_list
0000d1a4 g     F .text	000000f4 write
0000dc60 g     F .text	00000030 alt_avalon_sgdma_enable_desc_poll
0000fcac g       *ABS*	00000000 __ram_rodata_end
0000ccc4 g     F .text	00000080 fstat
0000ebf4 g     F .text	00000070 alt_up_rs232_write_fd
00000000 g       *ABS*	00000000 __alt_mem_SDRAM
00003ed8 g     F .text	00000088 __ledf2
00000d64 g     F .text	00000038 vga_write
0000ad00 g     F .text	00000120 __pow5mult
00023b38 g     O .bss	00000004 __nlocale_changed
0000cbd4 g     F .text	00000008 __umodsi3
00000c10 g     F .text	00000024 get_char
0000e020 g     F .text	00000040 alt_avalon_sgdma_construct_mem_to_stream_desc
00002168 g     F .text	00000004 switches_isr
0000dbb0 g     F .text	00000010 alt_avalon_sgdma_register_callback
000a7614 g       *ABS*	00000000 end
0000e974 g     F .text	00000070 alt_up_ps2_write_fd
00000b84 g     F .text	00000010 pushbuttons_clear_edge_capture
0000e56c g     F .text	0000000c alt_up_irda_check_parity
0000edd0 g     F .text	00000050 alt_up_char_buffer_init
00000c88 g     F .text	0000000c switches_get_interrupt_mask
0000d6ac g     F .text	00000078 altera_avalon_jtag_uart_init
08000000 g       *ABS*	00000000 __alt_stack_pointer
0000dc40 g     F .text	00000020 alt_avalon_sgdma_disable_desc_poll
0000e1e0 g     F .text	00000044 alt_avalon_timer_sc_init
00004128 g     F .text	00000080 __clzsi2
00005154 g     F .text	000000b4 _snprintf_r
0000da34 g     F .text	0000017c altera_avalon_jtag_uart_write
0000e11c g     F .text	00000038 alt_avalon_sgdma_construct_mem_to_mem_desc
0000030c g     F .text	0000010c kiss_fft_stride
00008d34 g     F .text	00000004 __sfp_lock_acquire
00009c50 g     F .text	000000e4 memchr
00000418 g     F .text	0000001c kiss_fft
0000e2c8 g     F .text	0000002c alt_up_character_lcd_write
000052d4 g     F .text	00001eac ___vfprintf_internal_r
0000e0ac g     F .text	00000028 alt_avalon_sgdma_construct_stream_to_mem_desc
000090c8 g     F .text	00000314 _free_r
0000f554 g     F .text	000001b0 __call_exitprocs
00000720 g     F .text	00000018 green_leds_clear
00023b3c g     O .bss	00000004 __mlocale_changed
00000c04 g     F .text	0000000c red_leds_clear_all
00019ba0 g     O .rwdata	00000004 __malloc_sbrk_base
00000168 g     F .text	0000003c _start
00019b40 g     O .rwdata	00000004 data_ptr
00023b54 g     O .bss	00000004 _alt_tick_rate
0000e154 g     F .text	0000005c alt_avalon_sgdma_open
0000a890 g     F .text	0000014c __lshift
00023b58 g     O .bss	00000004 _alt_nticks
0000d038 g     F .text	000000f8 read
0000d2b8 g     F .text	000002d0 alt_sys_init
0000e3d8 g     F .text	00000090 alt_up_character_lcd_shift_display
0000e7a8 g     F .text	00000030 alt_up_ps2_clear_fifo
0000ebcc g     F .text	00000010 alt_up_rs232_get_available_space_in_write_FIFO
0000f230 g     F .text	00000028 alt_remap_uncached
0000a9dc g     F .text	000001e8 __multiply
0000e36c g     F .text	0000006c alt_up_character_lcd_erase_pos
0000d620 g     F .text	00000038 altera_avalon_jtag_uart_close
0000fcac g       *ABS*	00000000 __ram_rwdata_start
0000f71c g       *ABS*	00000000 __ram_rodata_start
000974ec g     O .bss	00000028 __malloc_current_mallinfo
0000a588 g     F .text	0000017c __d2b
0000216c g     F .text	00000188 log10
08201000 g       *ABS*	00000000 __alt_mem_packet_memory
0000d5f8 g     F .text	00000028 altera_avalon_jtag_uart_read_fd
0000f3fc g     F .text	0000006c alt_get_fd
000046bc g     F .text	000000c8 __fpcmp_parts_d
0000b8a8 g     F .text	00000070 _close_r
00001258 g     F .text	00000068 printMFCC
0000f4dc g     F .text	00000074 memcmp
0000d5a8 g     F .text	00000028 altera_avalon_jtag_uart_close_fd
000a7614 g       *ABS*	00000000 __alt_stack_base
0000d588 g     F .text	00000020 altera_avalon_jtag_uart_ioctl_fd
0000e724 g     F .text	00000018 alt_up_irda_enable_read_interrupt
000071a4 g     F .text	0000013c __swsetup_r
00003a60 g     F .text	00000258 __divdf3
00008eac g     F .text	000000f0 __sfp
0000a3ec g     F .text	00000058 __copybits
000180dc g     O .rwdata	00000408 __malloc_av_
00008d40 g     F .text	00000004 __sinit_lock_release
0000369c g     F .text	000003c4 __muldf3
0000b660 g     F .text	00000060 __sread
0000ec64 g     F .text	0000001c alt_up_rs232_disable_read_interrupt
0000f340 g     F .text	000000bc alt_find_file
0000eeb8 g     F .text	00000070 alt_dev_llist_insert
0000d030 g     F .text	00000004 __malloc_lock
0000d154 g     F .text	00000050 sbrk
0000dcac g     F .text	00000018 alt_avalon_sgdma_start
00008aac g     F .text	000001fc _fflush_r
00000d38 g     F .text	0000000c vga_set_back_buffer
0000b7f4 g     F .text	000000b4 _calloc_r
00023b0c g       *ABS*	00000000 __bss_start
00009eb4 g     F .text	00000098 memset
00001b58 g     F .text	00000524 main
00000cb0 g     F .text	0000003c switches_enable_interrupts
00023b50 g     O .bss	00000004 alt_envp
00023b30 g     O .bss	00000004 __malloc_max_total_mem
0000edb0 g     F .text	00000020 alt_up_char_buffer_open_dev
0000d5d0 g     F .text	00000028 altera_avalon_jtag_uart_write_fd
00017c8c g     O .rwdata	00000050 tribankEnd
00019bcc g     O .rwdata	00000008 alt_sgdma_list
0000e468 g     F .text	00000090 alt_up_character_lcd_shift_cursor
0000b574 g     F .text	00000008 __sclose
00002934 g     F .text	00000008 matherr
08000000 g       *ABS*	00000000 __alt_heap_limit
00000758 g     F .text	0000000c hex_clear_3to0
0000ba28 g     F .text	00000014 fclose
0000e7d8 g     F .text	00000058 alt_up_ps2_read_data_byte
000074f8 g     F .text	000015b4 _dtoa_r
000047bc g     F .text	00000740 _malloc_r
00019bc0 g     O .rwdata	00000004 alt_errno
00009940 g     F .text	000000b8 _fwalk
0000e674 g     F .text	00000018 alt_up_irda_write_data
0000e788 g     F .text	00000020 alt_up_ps2_open_dev
0000cb0c g     F .text	00000060 __divsi3
0000f7d0 g     O .rodata	00000014 __thenan_df
0000e54c g     F .text	00000020 alt_up_character_lcd_open_dev
00008f9c g     F .text	0000012c _malloc_trim_r
0000eabc g     F .text	00000018 alt_up_ps2_enable_read_interrupt
00000744 g     F .text	00000014 hex_clear
0000e314 g     F .text	00000010 alt_up_character_lcd_init
0000b6c0 g     F .text	000000bc strcmp
0000f71c g       *ABS*	00000000 __flash_rodata_start
00000c94 g     F .text	0000000c switches_get_edge_capture
0000fcac g     O .rwdata	00006730 mat
0000eae0 g     F .text	00000020 alt_up_rs232_open_dev
0000c79c g     F .text	00000088 __nedf2
0000d298 g     F .text	00000020 alt_irq_init
0000d130 g     F .text	00000024 alt_release_fd
0000e774 g     F .text	0000000c read_data_valid
0000e350 g     F .text	0000001c alt_up_character_lcd_cursor_off
0000f7e4 g     O .rodata	00000100 __clz_tab
00023b40 g     O .bss	00000004 _PathLocale
000005d4 g     F .text	00000070 audio_write
0000e9e4 g     F .text	00000034 alt_up_ps2_write_data_byte_with_ack
00000b6c g     F .text	0000000c pushbuttons_get_interrupt_mask
0000b77c g     F .text	00000078 _write_r
00009aa0 g     F .text	0000001c setlocale
00000b00 g     F .text	00000048 lcd_char_buffer_clear
00000bd8 g     F .text	00000014 red_leds_update
00019b94 g     O .rwdata	00000004 _impure_ptr
00023b48 g     O .bss	00000004 alt_argc
0000294c g     F .text	000007f8 __ieee754_log
00000cec g     F .text	00000034 vga_enable_dma
00000020 g       .exceptions	00000000 alt_irq_entry
0000a108 g     F .text	00000080 __ulp
0000b534 g     F .text	00000040 __isinfd
00008df8 g     F .text	00000018 __fp_unlock_all
000010a4 g     F .text	000001b4 fft
00019bac g     O .rwdata	00000008 alt_fs_list
0000ec80 g     F .text	00000018 alt_up_rs232_enable_read_interrupt
0000ebdc g     F .text	00000018 alt_up_rs232_write_data
00000738 g     F .text	0000000c green_leds_clear_all
0000293c g     F .text	00000010 nan
00000020 g       *ABS*	00000000 __ram_exceptions_start
00009a0c g     F .text	00000010 localeconv
0000263c g     F .text	000002c8 __ieee754_sqrt
00000764 g     F .text	0000000c hex_clear_7to4
00019bdc g       *ABS*	00000000 _edata
00000bec g     F .text	00000018 red_leds_clear
000a7614 g       *ABS*	00000000 _end
0000211c g     F .text	0000004c pushbuttons_isr
00000168 g       *ABS*	00000000 __ram_exceptions_end
0000d858 g     F .text	00000074 altera_avalon_jtag_uart_ioctl
0000df88 g     F .text	00000048 alt_avalon_sgdma_construct_descriptor
0000b5e4 g     F .text	0000007c __swrite
00019b9c g     O .rwdata	00000004 __malloc_trim_threshold
0000f338 g     F .text	00000008 altera_nios2_qsys_irq_init
0000f4a4 g     F .text	00000038 exit
0000e598 g     F .text	0000004c alt_up_irda_read_data
00009878 g     F .text	000000c8 _fwalk_reent
0000ea18 g     F .text	00000088 alt_up_ps2_init
0000a704 g     F .text	0000018c __mdiff
00000308 g     F .text	00000004 kiss_fft_cleanup
0000cb6c g     F .text	00000060 __modsi3
08000000 g       *ABS*	00000000 __alt_data_end
00000020 g     F .exceptions	00000000 alt_exception
00008d38 g     F .text	00000004 __sfp_lock_release
00000b60 g     F .text	0000000c pushbuttons_set_interrupt_mask
00000b94 g     F .text	00000038 pushbuttons_enable_interrupts
0000e27c g     F .text	0000004c alt_up_character_lcd_string
0000e578 g     F .text	00000020 alt_up_irda_open_dev
000001a4 g     F .text	00000010 clamp
000006e0 g     F .text	00000010 char_lcd_shift_left
0000f704 g     F .text	00000014 _exit
00002904 g     F .text	00000030 __isnand
0000ee20 g     F .text	00000094 alt_alarm_start
00004090 g     F .text	00000098 __muldi3
00009abc g     F .text	00000194 __smakebuf_r
0000e8d8 g     F .text	0000005c alt_up_ps2_wait_for_ack
00005208 g     F .text	00000074 strlen
0000f0b4 g     F .text	0000017c open
00003dc8 g     F .text	00000088 __gedf2
0000ef98 g     F .text	00000020 alt_icache_flush_all
0000087c g     F .text	00000044 hex_write_7to4
0000e4f8 g     F .text	00000054 alt_up_character_lcd_set_cursor_pos
00019bc4 g     O .rwdata	00000004 alt_priority_mask
00007180 g     F .text	00000024 __vfprintf_internal
0000e8b0 g     F .text	00000028 alt_up_ps2_read_fd
00000504 g     F .text	00000018 kiss_fft_alloc
0000e0d4 g     F .text	00000048 alt_avalon_sgdma_construct_mem_to_mem_desc_burst
0000207c g     F .text	000000a0 testMFCC
000035a8 g     F .text	00000080 __subdf3
0000e5e4 g     F .text	00000080 alt_up_irda_read_fd
00019b3c g     O .rwdata	00000004 instruction_ptr
00009fe4 g     F .text	000000c4 __lo0bits
00019bd4 g     O .rwdata	00000008 alt_alarm_list
00000990 g     F .text	00000034 lcd_enable_dma
0000ec98 g     F .text	00000010 alt_up_rs232_get_used_space_in_read_FIFO
0000cbdc g     F .text	000000dc close
00000c34 g     F .text	0000003c put_char
0000ce84 g     F .text	000000c4 alt_load
00004270 g     F .text	00000314 __pack_d
0000051c g     F .text	00000024 audio_clear_read_fifo
0000dbc0 g     F .text	00000080 alt_avalon_sgdma_init
00004794 g     F .text	00000014 free
00008d3c g     F .text	00000004 __sinit_lock_acquire
0000ac00 g     F .text	00000100 __multadd
00009f4c g     F .text	00000028 _Bfree
000006a8 g     F .text	00000028 char_lcd_write
00017c3c g     O .rwdata	00000050 tribankStart



Disassembly of section .entry:

00000000 <__reset>:
#if NIOS2_ICACHE_SIZE > 0 && defined(ALT_ALLOW_CODE_AT_RESET) && !defined(ALT_SIM_OPTIMIZE)
    /* Assume the instruction cache size is always a power of two. */
#if NIOS2_ICACHE_SIZE > 0x8000
    movhi r2, %hi(NIOS2_ICACHE_SIZE)
#else
    movui r2, NIOS2_ICACHE_SIZE
   0:	00840014 	movui	r2,4096
#endif

0:
    initi r2
   4:	1001483a 	initi	r2
    addi r2, r2, -NIOS2_ICACHE_LINE_SIZE
   8:	10bff804 	addi	r2,r2,-32
    bgt r2, zero, 0b
   c:	00bffd16 	blt	zero,r2,4 <__reset+0x4>
 * Jump to the _start entry point in the .text section if reset code
 * is allowed or if optimizing for RTL simulation.
 */
#if defined(ALT_ALLOW_CODE_AT_RESET) || defined(ALT_SIM_OPTIMIZE)
    /* Jump to the _start entry point in the .text section. */
    movhi r1, %hi(_start)
  10:	00400034 	movhi	at,0
    ori r1, r1, %lo(_start)
  14:	08405a14 	ori	at,at,360
    jmp r1
  18:	0800683a 	jmp	at
  1c:	00000000 	call	0 <__reset>

Disassembly of section .exceptions:

00000020 <alt_exception>:
         * Process an exception.  For all exceptions we must preserve all
         * caller saved registers on the stack (See the Nios2 ABI
         * documentation for details).
         */

        addi  sp, sp, -76
  20:	deffed04 	addi	sp,sp,-76

#endif

#endif

        stw   ra,  0(sp)
  24:	dfc00015 	stw	ra,0(sp)
        /*
         * Leave a gap in the stack frame at 4(sp) for the muldiv handler to
         * store zero into.
         */

        stw   r1,   8(sp)
  28:	d8400215 	stw	at,8(sp)
        stw   r2,  12(sp)
  2c:	d8800315 	stw	r2,12(sp)
        stw   r3,  16(sp)
  30:	d8c00415 	stw	r3,16(sp)
        stw   r4,  20(sp)
  34:	d9000515 	stw	r4,20(sp)
        stw   r5,  24(sp)
  38:	d9400615 	stw	r5,24(sp)
        stw   r6,  28(sp)
  3c:	d9800715 	stw	r6,28(sp)
        stw   r7,  32(sp)
  40:	d9c00815 	stw	r7,32(sp)

        rdctl r5, estatus
  44:	000b307a 	rdctl	r5,estatus

        stw   r8,  36(sp)
  48:	da000915 	stw	r8,36(sp)
        stw   r9,  40(sp)
  4c:	da400a15 	stw	r9,40(sp)
        stw   r10, 44(sp)
  50:	da800b15 	stw	r10,44(sp)
        stw   r11, 48(sp)
  54:	dac00c15 	stw	r11,48(sp)
        stw   r12, 52(sp)
  58:	db000d15 	stw	r12,52(sp)
        stw   r13, 56(sp)
  5c:	db400e15 	stw	r13,56(sp)
        stw   r14, 60(sp)
  60:	db800f15 	stw	r14,60(sp)
        stw   r15, 64(sp)
  64:	dbc01015 	stw	r15,64(sp)
        /*
         * ea-4 contains the address of the instruction being executed
         * when the exception occured. For interrupt exceptions, we will
         * will be re-issue the isntruction. Store it in 72(sp)
         */
        stw   r5,  68(sp)  /* estatus */
  68:	d9401115 	stw	r5,68(sp)
        addi  r15, ea, -4  /* instruction that caused exception */
  6c:	ebffff04 	addi	r15,ea,-4
        stw   r15,  72(sp)
  70:	dbc01215 	stw	r15,72(sp)
#else
        /*
         * Test to see if the exception was a software exception or caused 
         * by an external interrupt, and vector accordingly.
         */
        rdctl r4, ipending
  74:	0009313a 	rdctl	r4,ipending
        andi  r2, r5, 1
  78:	2880004c 	andi	r2,r5,1
        beq   r2, zero, .Lnot_irq
  7c:	10000326 	beq	r2,zero,8c <alt_exception+0x6c>
        beq   r4, zero, .Lnot_irq
  80:	20000226 	beq	r4,zero,8c <alt_exception+0x6c>
        /*
         * Now that all necessary registers have been preserved, call 
         * alt_irq_handler() to process the interrupts.
         */

        call alt_irq_handler
  84:	00000ec0 	call	ec <alt_irq_handler>

        .section .exceptions.irqreturn, "xa"

        br    .Lexception_exit
  88:	00000306 	br	98 <alt_exception+0x78>
         * upon completion, so we write ea (address of instruction *after*
         * the one where the exception occured) into 72(sp). The actual
         * instruction that caused the exception is written in r2, which these
         * handlers will utilize.
         */
        stw   ea,  72(sp)  /* Don't re-issue */
  8c:	df401215 	stw	ea,72(sp)
        ldw   r2, -4(ea)   /* Instruction that caused exception */
  90:	e8bfff17 	ldw	r2,-4(ea)
#ifdef NIOS2_HAS_DEBUG_STUB
       /*
        *  Either tell the user now (if there is a debugger attached) or go into
        *  the debug monitor which will loop until a debugger is attached.
        */
        break
  94:	003da03a 	break	0
        /* 
         * Restore the saved registers, so that all general purpose registers 
         * have been restored to their state at the time the interrupt occured.
         */

        ldw   r5,  68(sp)
  98:	d9401117 	ldw	r5,68(sp)
        ldw   ea,  72(sp)  /* This becomes the PC once eret is executed */
  9c:	df401217 	ldw	ea,72(sp)
        ldw   ra,   0(sp)
  a0:	dfc00017 	ldw	ra,0(sp)

        wrctl estatus, r5
  a4:	2801707a 	wrctl	estatus,r5

        ldw   r1,   8(sp)
  a8:	d8400217 	ldw	at,8(sp)
        ldw   r2,  12(sp)
  ac:	d8800317 	ldw	r2,12(sp)
        ldw   r3,  16(sp)
  b0:	d8c00417 	ldw	r3,16(sp)
        ldw   r4,  20(sp)
  b4:	d9000517 	ldw	r4,20(sp)
        ldw   r5,  24(sp)
  b8:	d9400617 	ldw	r5,24(sp)
        ldw   r6,  28(sp)
  bc:	d9800717 	ldw	r6,28(sp)
        ldw   r7,  32(sp)
  c0:	d9c00817 	ldw	r7,32(sp)
#ifdef ALT_STACK_CHECK
        ldw   et, %gprel(alt_exception_old_stack_limit)(gp)
#endif
#endif

        ldw   r8,  36(sp)
  c4:	da000917 	ldw	r8,36(sp)
        ldw   r9,  40(sp)
  c8:	da400a17 	ldw	r9,40(sp)
        ldw   r10, 44(sp)
  cc:	da800b17 	ldw	r10,44(sp)
        ldw   r11, 48(sp)
  d0:	dac00c17 	ldw	r11,48(sp)
        ldw   r12, 52(sp)
  d4:	db000d17 	ldw	r12,52(sp)
        ldw   r13, 56(sp)
  d8:	db400e17 	ldw	r13,56(sp)
        ldw   r14, 60(sp)
  dc:	db800f17 	ldw	r14,60(sp)
        ldw   r15, 64(sp)
  e0:	dbc01017 	ldw	r15,64(sp)
#endif

        ldw   sp,  76(sp)

#else
        addi  sp, sp, 76
  e4:	dec01304 	addi	sp,sp,76

        /*
         * Return to the interrupted instruction.
         */

        eret
  e8:	ef80083a 	eret

000000ec <alt_irq_handler>:
 * instruction is present if the macro ALT_CI_INTERRUPT_VECTOR defined.
 */

void alt_irq_handler (void) __attribute__ ((section (".exceptions")));
void alt_irq_handler (void)
{
  ec:	defffe04 	addi	sp,sp,-8
  f0:	dfc00115 	stw	ra,4(sp)
  f4:	dc000015 	stw	r16,0(sp)
#ifndef NIOS2_EIC_PRESENT
static ALT_INLINE alt_u32 ALT_ALWAYS_INLINE alt_irq_pending (void)
{
  alt_u32 active;

  NIOS2_READ_IPENDING (active);
  f8:	000d313a 	rdctl	r6,ipending
  fc:	040002b4 	movhi	r16,10
 100:	841d4504 	addi	r16,r16,29972
     * called to clear the interrupt condition.
     */

    do
    {
      if (active & mask)
 104:	3080004c 	andi	r2,r6,1
 108:	1005003a 	cmpeq	r2,r2,zero
 10c:	10000a1e 	bne	r2,zero,138 <alt_irq_handler+0x4c>
 110:	000b883a 	mov	r5,zero
      { 
#ifdef ALT_ENHANCED_INTERRUPT_API_PRESENT
        alt_irq[i].handler(alt_irq[i].context); 
#else
        alt_irq[i].handler(alt_irq[i].context, i); 
 114:	280490fa 	slli	r2,r5,3
 118:	1405883a 	add	r2,r2,r16
 11c:	10c00017 	ldw	r3,0(r2)
 120:	11000117 	ldw	r4,4(r2)
 124:	183ee83a 	callr	r3
 128:	0005313a 	rdctl	r2,ipending

    } while (1);

    active = alt_irq_pending ();
    
  } while (active);
 12c:	10000a26 	beq	r2,zero,158 <alt_irq_handler+0x6c>
 130:	100d883a 	mov	r6,r2
 134:	003ff306 	br	104 <alt_irq_handler+0x18>
 138:	00c00044 	movi	r3,1
 13c:	000b883a 	mov	r5,zero
 140:	1809883a 	mov	r4,r3
#else
        alt_irq[i].handler(alt_irq[i].context, i); 
#endif
        break;
      }
      mask <<= 1;
 144:	18c7883a 	add	r3,r3,r3
      i++;
 148:	290b883a 	add	r5,r5,r4
     * called to clear the interrupt condition.
     */

    do
    {
      if (active & mask)
 14c:	30c4703a 	and	r2,r6,r3
 150:	103ff01e 	bne	r2,zero,114 <alt_irq_handler+0x28>
 154:	003ffb06 	br	144 <alt_irq_handler+0x58>
  /*
   * Notify the operating system that interrupt processing is complete.
   */ 

  ALT_OS_INT_EXIT();
}
 158:	dfc00117 	ldw	ra,4(sp)
 15c:	dc000017 	ldw	r16,0(sp)
 160:	dec00204 	addi	sp,sp,8
 164:	f800283a 	ret

Disassembly of section .text:

00000168 <_start>:
#if (NIOS2_NUM_OF_SHADOW_REG_SETS == 0)    
    /*
     * Now that the caches are initialized, set up the stack pointer.
     * The value provided by the linker is assumed to be correctly aligned.
     */
    movhi sp, %hi(__alt_stack_pointer)
     168:	06c20034 	movhi	sp,2048
    ori sp, sp, %lo(__alt_stack_pointer)
     16c:	dec00014 	ori	sp,sp,0

    /* Set up the global pointer. */
    movhi gp, %hi(_gp)
     170:	068000b4 	movhi	gp,2
    ori gp, gp, %lo(_gp)
     174:	d686cb14 	ori	gp,gp,6956
 */
#ifndef ALT_SIM_OPTIMIZE
    /* Log that the BSS is about to be cleared. */
    ALT_LOG_PUTS(alt_log_msg_bss)

    movhi r2, %hi(__bss_start)
     178:	008000b4 	movhi	r2,2
    ori r2, r2, %lo(__bss_start)
     17c:	108ec314 	ori	r2,r2,15116

    movhi r3, %hi(__bss_end)
     180:	00c002b4 	movhi	r3,10
    ori r3, r3, %lo(__bss_end)
     184:	18dd8514 	ori	r3,r3,30228

    beq r2, r3, 1f
     188:	10c00326 	beq	r2,r3,198 <_start+0x30>

0:
    stw zero, (r2)
     18c:	10000015 	stw	zero,0(r2)
    addi r2, r2, 4
     190:	10800104 	addi	r2,r2,4
    bltu r2, r3, 0b
     194:	10fffd36 	bltu	r2,r3,18c <_start+0x24>
     * section aren't defined until alt_load() has been called).
     */
    mov   et, zero
#endif

    call alt_load
     198:	000ce840 	call	ce84 <alt_load>

    /* Log that alt_main is about to be called. */
    ALT_LOG_PUTS(alt_log_msg_alt_main)

    /* Call the C entry point. It should never return. */
    call alt_main
     19c:	000cfe00 	call	cfe0 <alt_main>

000001a0 <alt_after_alt_main>:

    /* Wait in infinite loop in case alt_main does return. */
alt_after_alt_main:
    br alt_after_alt_main
     1a0:	003fff06 	br	1a0 <alt_after_alt_main>

000001a4 <clamp>:
void draw_fft ();
void signal_audio_ready ();

int clamp (int value, int ceiling)
{
  if (value < ceiling) return 0;
     1a4:	2140010e 	bge	r4,r5,1ac <clamp+0x8>
     1a8:	0009883a 	mov	r4,zero
  else return value;
}
     1ac:	2005883a 	mov	r2,r4
     1b0:	f800283a 	ret

000001b4 <audio_isr>:

void audio_isr (void *context, unsigned int id) {
     1b4:	defffc04 	addi	sp,sp,-16
     1b8:	dfc00315 	stw	ra,12(sp)
     1bc:	dc800215 	stw	r18,8(sp)
     1c0:	dc400115 	stw	r17,4(sp)
     1c4:	dc000015 	stw	r16,0(sp)
  uint32_t numToRead = (samples_for_fft_requested) ? (NUM_SAMPLES - numRead) : AUDIO_BUF_SIZE;
     1c8:	008000b4 	movhi	r2,2
     1cc:	108ec704 	addi	r2,r2,15132
     1d0:	10800003 	ldbu	r2,0(r2)
     1d4:	10803fcc 	andi	r2,r2,255
     1d8:	1000021e 	bne	r2,zero,1e4 <audio_isr+0x30>
     1dc:	00802004 	movi	r2,128
     1e0:	00000506 	br	1f8 <audio_isr+0x44>
     1e4:	008000b4 	movhi	r2,2
     1e8:	108ec804 	addi	r2,r2,15136
     1ec:	10c00017 	ldw	r3,0(r2)
     1f0:	00880004 	movi	r2,8192
     1f4:	10c5c83a 	sub	r2,r2,r3
  // Want to read step
  size_t count = audio_read (left_buffer, right_buffer, STEP_SIZE*numToRead);
     1f8:	040000b4 	movhi	r16,2
     1fc:	840ed704 	addi	r16,r16,15196
     200:	044000b4 	movhi	r17,2
     204:	8c4f5704 	addi	r17,r17,15708
     208:	108d883a 	add	r6,r2,r2
     20c:	8009883a 	mov	r4,r16
     210:	880b883a 	mov	r5,r17
     214:	318d883a 	add	r6,r6,r6
     218:	00005640 	call	564 <audio_read>
     21c:	1025883a 	mov	r18,r2
  audio_write (left_buffer, right_buffer, count);
     220:	8009883a 	mov	r4,r16
     224:	880b883a 	mov	r5,r17
     228:	100d883a 	mov	r6,r2
     22c:	00005d40 	call	5d4 <audio_write>
  if (samples_for_fft_requested) {
     230:	040000b4 	movhi	r16,2
     234:	840ec704 	addi	r16,r16,15132
     238:	80800003 	ldbu	r2,0(r16)
     23c:	10803fcc 	andi	r2,r2,255
     240:	10002b26 	beq	r2,zero,2f0 <audio_isr+0x13c>
      size_t i;
      red_leds_set (0xFF);
     244:	01003fc4 	movi	r4,255
     248:	0000bcc0 	call	bcc <red_leds_set>
      //modify count by STEP_SIZE since only count/STEP_SIZE samples actually copied
      size_t numSamples = count/STEP_SIZE;
     24c:	9022d0ba 	srli	r17,r18,2
      if (numRead + numSamples >= NUM_SAMPLES) {
     250:	010000b4 	movhi	r4,2
     254:	210ec804 	addi	r4,r4,15136
     258:	20800017 	ldw	r2,0(r4)
     25c:	8885883a 	add	r2,r17,r2
     260:	00c7ffc4 	movi	r3,8191
     264:	1880042e 	bgeu	r3,r2,278 <audio_isr+0xc4>
        numRead = 0;
     268:	20000015 	stw	zero,0(r4)
        samples_for_fft_requested = false;
     26c:	80000005 	stb	zero,0(r16)
        signal_audio_ready();
     270:	0000e440 	call	e44 <signal_audio_ready>
        startVal = 0;
     274:	d007f815 	stw	zero,8160(gp)
      }
      for (i = startVal; i < count; i+= STEP_SIZE) {
     278:	d107f817 	ldw	r4,8160(gp)
     27c:	2480132e 	bgeu	r4,r18,2cc <audio_isr+0x118>
     280:	020000b4 	movhi	r8,2
     284:	420ec804 	addi	r8,r8,15136
     288:	01c000b4 	movhi	r7,2
     28c:	39ced704 	addi	r7,r7,15196
     290:	01800274 	movhi	r6,9
     294:	319d4504 	addi	r6,r6,29972
     298:	01400104 	movi	r5,4
        samples_for_fft[i/STEP_SIZE + numRead].r = left_buffer[i];
     29c:	40800017 	ldw	r2,0(r8)
     2a0:	2006d0ba 	srli	r3,r4,2
     2a4:	1887883a 	add	r3,r3,r2
     2a8:	2105883a 	add	r2,r4,r4
     2ac:	1085883a 	add	r2,r2,r2
     2b0:	11c5883a 	add	r2,r2,r7
     2b4:	10800017 	ldw	r2,0(r2)
     2b8:	180690fa 	slli	r3,r3,3
     2bc:	1987883a 	add	r3,r3,r6
     2c0:	18800015 	stw	r2,0(r3)
        numRead = 0;
        samples_for_fft_requested = false;
        signal_audio_ready();
        startVal = 0;
      }
      for (i = startVal; i < count; i+= STEP_SIZE) {
     2c4:	2149883a 	add	r4,r4,r5
     2c8:	24bff436 	bltu	r4,r18,29c <audio_isr+0xe8>
        samples_for_fft[i/STEP_SIZE + numRead].r = left_buffer[i];
      }
      numRead += numSamples;
     2cc:	008000b4 	movhi	r2,2
     2d0:	108ec804 	addi	r2,r2,15136
     2d4:	10c00017 	ldw	r3,0(r2)
     2d8:	88c7883a 	add	r3,r17,r3
     2dc:	10c00015 	stw	r3,0(r2)
      //maintian proper spacing on next set of samples when next interrupt received
      startVal = count%STEP_SIZE;
     2e0:	908000cc 	andi	r2,r18,3
     2e4:	d087f815 	stw	r2,8160(gp)
      red_leds_clear (0xFF);
     2e8:	01003fc4 	movi	r4,255
     2ec:	0000bec0 	call	bec <red_leds_clear>
    }
}
     2f0:	dfc00317 	ldw	ra,12(sp)
     2f4:	dc800217 	ldw	r18,8(sp)
     2f8:	dc400117 	ldw	r17,4(sp)
     2fc:	dc000017 	ldw	r16,0(sp)
     300:	dec00404 	addi	sp,sp,16
     304:	f800283a 	ret

00000308 <kiss_fft_cleanup>:
/*
 * Empty function, nothing to clean up
 */
void kiss_fft_cleanup (void)
{
}
     308:	f800283a 	ret

0000030c <kiss_fft_stride>:
    return kiss_fft_alloc_twiddles (nfft, inverse_fft, mem, lenmem);
}


void kiss_fft_stride (const kiss_fft_cfg cfg, kiss_fft_cpx *fin, kiss_fft_cpx *fout, int in_stride)
{
     30c:	defffd04 	addi	sp,sp,-12
     310:	dfc00215 	stw	ra,8(sp)
     314:	dc400115 	stw	r17,4(sp)
     318:	dc000015 	stw	r16,0(sp)
     31c:	2021883a 	mov	r16,r4
     320:	2819883a 	mov	r12,r5
     324:	3023883a 	mov	r17,r6

  /*
   * Set the size, source and destination address
   */

  belFftPtr->N.N = cfg->nfft;
     328:	20800017 	ldw	r2,0(r4)
     32c:	00e20834 	movhi	r3,34848
     330:	18cc0004 	addi	r3,r3,12288
     334:	1880020d 	sth	r2,8(r3)
  belFftPtr->Finadr = fin;
     338:	19400315 	stw	r5,12(r3)
  belFftPtr->Foutadr = fout;
     33c:	19800415 	stw	r6,16(r3)

  /*
   * Copy the precalculated factors.
   */

  facbuf = cfg->factors;
     340:	21000204 	addi	r4,r4,8
  i = 0;
  while (1) {
      belFftPtr->Factors[i].P = *facbuf++;
     344:	2080000b 	ldhu	r2,0(r4)
     348:	1880058d 	sth	r2,22(r3)
     34c:	01400084 	movi	r5,2
     350:	2149883a 	add	r4,r4,r5
      belFftPtr->Factors[i].M = *facbuf;
     354:	2080000b 	ldhu	r2,0(r4)
     358:	1880050d 	sth	r2,20(r3)
      if (*facbuf++ == 1) {
     35c:	20c0000f 	ldh	r3,0(r4)
     360:	00800044 	movi	r2,1
     364:	18801526 	beq	r3,r2,3bc <kiss_fft_stride+0xb0>
     368:	214b883a 	add	r5,r4,r5
     36c:	000d883a 	mov	r6,zero
     370:	100f883a 	mov	r7,r2
     374:	02e20834 	movhi	r11,34848
     378:	5acc0004 	addi	r11,r11,12288
     37c:	02800504 	movi	r10,20
     380:	02400084 	movi	r9,2
     384:	02000104 	movi	r8,4
          break;
      }
      i++;
     388:	31cd883a 	add	r6,r6,r7
   */

  facbuf = cfg->factors;
  i = 0;
  while (1) {
      belFftPtr->Factors[i].P = *facbuf++;
     38c:	28c0000b 	ldhu	r3,0(r5)
     390:	3185883a 	add	r2,r6,r6
     394:	1085883a 	add	r2,r2,r2
     398:	12c5883a 	add	r2,r2,r11
     39c:	1285883a 	add	r2,r2,r10
     3a0:	10c0008d 	sth	r3,2(r2)
     3a4:	2a49883a 	add	r4,r5,r9
      belFftPtr->Factors[i].M = *facbuf;
     3a8:	20c0000b 	ldhu	r3,0(r4)
     3ac:	10c0000d 	sth	r3,0(r2)
      if (*facbuf++ == 1) {
     3b0:	2a0b883a 	add	r5,r5,r8
     3b4:	2080000f 	ldh	r2,0(r4)
     3b8:	11fff31e 	bne	r2,r7,388 <kiss_fft_stride+0x7c>

  /*
   * Flush the data cache for the source and destination region
   */

  alt_dcache_flush (fin, cfg->nfft * sizeof (kiss_fft_cpx));
     3bc:	81400017 	ldw	r5,0(r16)
     3c0:	6009883a 	mov	r4,r12
     3c4:	280a90fa 	slli	r5,r5,3
     3c8:	000ccb80 	call	ccb8 <alt_dcache_flush>
  alt_dcache_flush (fout, cfg->nfft * sizeof (kiss_fft_cpx));
     3cc:	81400017 	ldw	r5,0(r16)
     3d0:	8809883a 	mov	r4,r17
     3d4:	280a90fa 	slli	r5,r5,3
     3d8:	000ccb80 	call	ccb8 <alt_dcache_flush>

  /*
   * Start the FFT
   */

  belFftPtr->Control.Start = 1;
     3dc:	00e20834 	movhi	r3,34848
     3e0:	18cc0004 	addi	r3,r3,12288
     3e4:	18800017 	ldw	r2,0(r3)
     3e8:	10800054 	ori	r2,r2,1
     3ec:	18800015 	stw	r2,0(r3)
     3f0:	1809883a 	mov	r4,r3
     3f4:	00c00104 	movi	r3,4
  /*
   * We poll the status register until the FFT is ready. Other implementations
   * like generation an interrupt are possible.
   */

  while (! belFftPtr->Status.Int);
     3f8:	20800117 	ldw	r2,4(r4)
     3fc:	10c4703a 	and	r2,r2,r3
     400:	103ffd26 	beq	r2,zero,3f8 <kiss_fft_stride+0xec>
}
     404:	dfc00217 	ldw	ra,8(sp)
     408:	dc400117 	ldw	r17,4(sp)
     40c:	dc000017 	ldw	r16,0(sp)
     410:	dec00304 	addi	sp,sp,12
     414:	f800283a 	ret

00000418 <kiss_fft>:


void kiss_fft (kiss_fft_cfg cfg, kiss_fft_cpx *fin, kiss_fft_cpx *fout)
{
     418:	deffff04 	addi	sp,sp,-4
     41c:	dfc00015 	stw	ra,0(sp)
    kiss_fft_stride (cfg, fin, fout, 1);
     420:	01c00044 	movi	r7,1
     424:	000030c0 	call	30c <kiss_fft_stride>
}
     428:	dfc00017 	ldw	ra,0(sp)
     42c:	dec00104 	addi	sp,sp,4
     430:	f800283a 	ret

00000434 <kiss_fft_alloc_twiddles>:
 *
 * The parameters inverse_fft, mem, and lenmem are not used.
 */

kiss_fft_cfg kiss_fft_alloc_twiddles (int nfft, int inverse_fft, void *mem, size_t *lenmem)
{
     434:	defffe04 	addi	sp,sp,-8
     438:	dfc00115 	stw	ra,4(sp)
     43c:	dc000015 	stw	r16,0(sp)
     440:	2021883a 	mov	r16,r4
    kiss_fft_cfg cfg;

    cfg = (kiss_fft_cfg) malloc (sizeof (struct kiss_fft_state));
     444:	01002304 	movi	r4,140
     448:	00047a80 	call	47a8 <malloc>
     44c:	100d883a 	mov	r6,r2
    if (cfg) {
     450:	10002726 	beq	r2,zero,4f0 <kiss_fft_alloc_twiddles+0xbc>
        cfg->nfft = nfft;
     454:	14000015 	stw	r16,0(r2)

        cfg->belFftPtr = (struct bel_fft *) FFT_BASE;
     458:	00820834 	movhi	r2,2080
     45c:	108c0004 	addi	r2,r2,12288
     460:	30802215 	stw	r2,136(r6)
     464:	31400204 	addi	r5,r6,8
     468:	01000104 	movi	r4,4
     46c:	01c00144 	movi	r7,5
     470:	02000044 	movi	r8,1
     474:	2015883a 	mov	r10,r4
     478:	02c00084 	movi	r11,2
     47c:	025f4004 	movi	r9,32000
     480:	00000c06 	br	4b4 <kiss_fft_alloc_twiddles+0x80>
    int p = 4;

    /* factor out powers of 4, powers of 2, then any remaining primes */
    do {
        while (n % p) {
            switch (p) {
     484:	00800084 	movi	r2,2
     488:	20800326 	beq	r4,r2,498 <kiss_fft_alloc_twiddles+0x64>
     48c:	2280041e 	bne	r4,r10,4a0 <kiss_fft_alloc_twiddles+0x6c>
     490:	1009883a 	mov	r4,r2
     494:	00000406 	br	4a8 <kiss_fft_alloc_twiddles+0x74>
     498:	010000c4 	movi	r4,3
     49c:	00000106 	br	4a4 <kiss_fft_alloc_twiddles+0x70>
                case 4: p = 2; break;
                case 2: p = 3; break;
                default: p += 2; break;
     4a0:	22c9883a 	add	r4,r4,r11
            }
            if (p > 32000 || (int) p *(int) p > n) {
     4a4:	49000216 	blt	r9,r4,4b0 <kiss_fft_alloc_twiddles+0x7c>
     4a8:	2105383a 	mul	r2,r4,r4
     4ac:	8080010e 	bge	r16,r2,4b4 <kiss_fft_alloc_twiddles+0x80>
     4b0:	8009883a 	mov	r4,r16
{
    int p = 4;

    /* factor out powers of 4, powers of 2, then any remaining primes */
    do {
        while (n % p) {
     4b4:	8107283a 	div	r3,r16,r4
     4b8:	1905383a 	mul	r2,r3,r4
     4bc:	80bff11e 	bne	r16,r2,484 <kiss_fft_alloc_twiddles+0x50>
            if (p > 32000 || (int) p *(int) p > n) {
                p = n;          /* no more factors, skip to end */
            }
        }
        n /= p;
        if (p>5) {
     4c0:	39000816 	blt	r7,r4,4e4 <kiss_fft_alloc_twiddles+0xb0>
            }
            if (p > 32000 || (int) p *(int) p > n) {
                p = n;          /* no more factors, skip to end */
            }
        }
        n /= p;
     4c4:	1821883a 	mov	r16,r3
        if (p>5) {
            return 0;
        }
        *facbuf++ = (short int) p;
     4c8:	2900000d 	sth	r4,0(r5)
     4cc:	00c00084 	movi	r3,2
     4d0:	28c5883a 	add	r2,r5,r3
        *facbuf++ = (short int) n;
     4d4:	1400000d 	sth	r16,0(r2)
    } while (n > 1);
     4d8:	4400050e 	bge	r8,r16,4f0 <kiss_fft_alloc_twiddles+0xbc>
        n /= p;
        if (p>5) {
            return 0;
        }
        *facbuf++ = (short int) p;
        *facbuf++ = (short int) n;
     4dc:	10cb883a 	add	r5,r2,r3
     4e0:	003ff406 	br	4b4 <kiss_fft_alloc_twiddles+0x80>
    if (cfg) {
        cfg->nfft = nfft;

        cfg->belFftPtr = (struct bel_fft *) FFT_BASE;
        if (! kf_factor (nfft, cfg->factors)) {
            free (cfg);
     4e4:	3009883a 	mov	r4,r6
     4e8:	00047940 	call	4794 <free>
     4ec:	000d883a 	mov	r6,zero
            return NULL;
        }
    }
    return cfg;
}
     4f0:	3005883a 	mov	r2,r6
     4f4:	dfc00117 	ldw	ra,4(sp)
     4f8:	dc000017 	ldw	r16,0(sp)
     4fc:	dec00204 	addi	sp,sp,8
     500:	f800283a 	ret

00000504 <kiss_fft_alloc>:


kiss_fft_cfg kiss_fft_alloc (int nfft, int inverse_fft, void * mem, size_t * lenmem)
{
     504:	deffff04 	addi	sp,sp,-4
     508:	dfc00015 	stw	ra,0(sp)
    return kiss_fft_alloc_twiddles (nfft, inverse_fft, mem, lenmem);
     50c:	00004340 	call	434 <kiss_fft_alloc_twiddles>
}
     510:	dfc00017 	ldw	ra,0(sp)
     514:	dec00104 	addi	sp,sp,4
     518:	f800283a 	ret

0000051c <audio_clear_read_fifo>:
  *audio_ptr |= AUDIO_RE_MASK;
}

void audio_clear_read_fifo ()
{
  *audio_ptr |= AUDIO_CR_MASK;
     51c:	d1200317 	ldw	r4,-32756(gp)
     520:	20800017 	ldw	r2,0(r4)
     524:	10800114 	ori	r2,r2,4
     528:	20800015 	stw	r2,0(r4)
  *audio_ptr &= ~AUDIO_CR_MASK;
     52c:	20800017 	ldw	r2,0(r4)
     530:	00fffec4 	movi	r3,-5
     534:	10c4703a 	and	r2,r2,r3
     538:	20800015 	stw	r2,0(r4)
}
     53c:	f800283a 	ret

00000540 <audio_clear_write_fifo>:

void audio_clear_write_fifo ()
{
  *audio_ptr |= AUDIO_CW_MASK;
     540:	d1200317 	ldw	r4,-32756(gp)
     544:	20800017 	ldw	r2,0(r4)
     548:	10800214 	ori	r2,r2,8
     54c:	20800015 	stw	r2,0(r4)
  *audio_ptr &= ~AUDIO_CW_MASK;
     550:	20800017 	ldw	r2,0(r4)
     554:	00fffdc4 	movi	r3,-9
     558:	10c4703a 	and	r2,r2,r3
     55c:	20800015 	stw	r2,0(r4)
}
     560:	f800283a 	ret

00000564 <audio_read>:

uint32_t audio_read (int *left_buffer, int *right_buffer, uint32_t count)
{
  size_t read_buffer_index = 0;
  while ((*fifospace_ptr & AUDIO_RARC_MASK) && (read_buffer_index < count))
     564:	d3a00217 	ldw	r14,-32760(gp)
     568:	70800017 	ldw	r2,0(r14)
     56c:	10803fcc 	andi	r2,r2,255
     570:	10001526 	beq	r2,zero,5c8 <audio_read+0x64>
     574:	30001426 	beq	r6,zero,5c8 <audio_read+0x64>
    {
      left_buffer[read_buffer_index]  = *leftdata_ptr;
     578:	d3600017 	ldw	r13,-32768(gp)
      right_buffer[read_buffer_index] = *rightdata_ptr;
     57c:	d3200117 	ldw	r12,-32764(gp)
     580:	0011883a 	mov	r8,zero
     584:	000f883a 	mov	r7,zero
     588:	02c00044 	movi	r11,1
     58c:	02803fc4 	movi	r10,255
     590:	02400104 	movi	r9,4
  *audio_ptr |= AUDIO_CW_MASK;
  *audio_ptr &= ~AUDIO_CW_MASK;
}

uint32_t audio_read (int *left_buffer, int *right_buffer, uint32_t count)
{
     594:	3907883a 	add	r3,r7,r4
  size_t read_buffer_index = 0;
  while ((*fifospace_ptr & AUDIO_RARC_MASK) && (read_buffer_index < count))
    {
      left_buffer[read_buffer_index]  = *leftdata_ptr;
     598:	68800017 	ldw	r2,0(r13)
     59c:	18800015 	stw	r2,0(r3)
     5a0:	3947883a 	add	r3,r7,r5
      right_buffer[read_buffer_index] = *rightdata_ptr;
     5a4:	60800017 	ldw	r2,0(r12)
     5a8:	18800015 	stw	r2,0(r3)
      read_buffer_index++;
     5ac:	42d1883a 	add	r8,r8,r11
}

uint32_t audio_read (int *left_buffer, int *right_buffer, uint32_t count)
{
  size_t read_buffer_index = 0;
  while ((*fifospace_ptr & AUDIO_RARC_MASK) && (read_buffer_index < count))
     5b0:	70800017 	ldw	r2,0(r14)
     5b4:	1284703a 	and	r2,r2,r10
     5b8:	10000426 	beq	r2,zero,5cc <audio_read+0x68>
     5bc:	3a4f883a 	add	r7,r7,r9
     5c0:	32000226 	beq	r6,r8,5cc <audio_read+0x68>
     5c4:	003ff306 	br	594 <audio_read+0x30>
     5c8:	0011883a 	mov	r8,zero
      left_buffer[read_buffer_index]  = *leftdata_ptr;
      right_buffer[read_buffer_index] = *rightdata_ptr;
      read_buffer_index++;
    }
  return read_buffer_index;
}
     5cc:	4005883a 	mov	r2,r8
     5d0:	f800283a 	ret

000005d4 <audio_write>:

uint32_t audio_write (int *left_buffer, int *right_buffer, uint32_t count)
{
  size_t write_buffer_index = 0;
  while ((*fifospace_ptr & AUDIO_WSRC_MASK) && (write_buffer_index < count))
     5d4:	d3600217 	ldw	r13,-32760(gp)
     5d8:	68800017 	ldw	r2,0(r13)
     5dc:	10803fec 	andhi	r2,r2,255
     5e0:	10001526 	beq	r2,zero,638 <audio_write+0x64>
     5e4:	30001426 	beq	r6,zero,638 <audio_write+0x64>
    {
      *leftdata_ptr = left_buffer[write_buffer_index];
     5e8:	d3200017 	ldw	r12,-32768(gp)
      *rightdata_ptr = right_buffer[write_buffer_index];
     5ec:	d2e00117 	ldw	r11,-32764(gp)
     5f0:	000f883a 	mov	r7,zero
     5f4:	0007883a 	mov	r3,zero
     5f8:	02800044 	movi	r10,1
     5fc:	02403ff4 	movhi	r9,255
     600:	02000104 	movi	r8,4
    }
  return read_buffer_index;
}

uint32_t audio_write (int *left_buffer, int *right_buffer, uint32_t count)
{
     604:	1905883a 	add	r2,r3,r4
  size_t write_buffer_index = 0;
  while ((*fifospace_ptr & AUDIO_WSRC_MASK) && (write_buffer_index < count))
    {
      *leftdata_ptr = left_buffer[write_buffer_index];
     608:	10800017 	ldw	r2,0(r2)
     60c:	60800015 	stw	r2,0(r12)
     610:	1945883a 	add	r2,r3,r5
      *rightdata_ptr = right_buffer[write_buffer_index];
     614:	10800017 	ldw	r2,0(r2)
     618:	58800015 	stw	r2,0(r11)
      write_buffer_index++;
     61c:	3a8f883a 	add	r7,r7,r10
}

uint32_t audio_write (int *left_buffer, int *right_buffer, uint32_t count)
{
  size_t write_buffer_index = 0;
  while ((*fifospace_ptr & AUDIO_WSRC_MASK) && (write_buffer_index < count))
     620:	68800017 	ldw	r2,0(r13)
     624:	1244703a 	and	r2,r2,r9
     628:	10000426 	beq	r2,zero,63c <audio_write+0x68>
     62c:	1a07883a 	add	r3,r3,r8
     630:	31c00226 	beq	r6,r7,63c <audio_write+0x68>
     634:	003ff306 	br	604 <audio_write+0x30>
     638:	000f883a 	mov	r7,zero
      *leftdata_ptr = left_buffer[write_buffer_index];
      *rightdata_ptr = right_buffer[write_buffer_index];
      write_buffer_index++;
    }
  return write_buffer_index;
}
     63c:	3805883a 	mov	r2,r7
     640:	f800283a 	ret

00000644 <audio_init>:
/***************************************
 ****  PUBLIC FUNCTION DEFINITIONS  ****
 ***************************************/

void audio_init (void *isr)
{
     644:	deffff04 	addi	sp,sp,-4
     648:	dfc00015 	stw	ra,0(sp)
     64c:	200d883a 	mov	r6,r4
  audio_isr = isr;
     650:	d107f915 	stw	r4,8164(gp)

  // Register internal interrupt handler
  alt_irq_register (AUDIO_IRQ, NULL, (alt_isr_func) audio_isr);
     654:	01000184 	movi	r4,6
     658:	000b883a 	mov	r5,zero
     65c:	000cd440 	call	cd44 <alt_irq_register>

  // Enable interrupts from audio module
  *audio_ptr |= AUDIO_RE_MASK;
     660:	d0e00317 	ldw	r3,-32756(gp)
     664:	18800017 	ldw	r2,0(r3)
     668:	10800054 	ori	r2,r2,1
     66c:	18800015 	stw	r2,0(r3)
}
     670:	dfc00017 	ldw	ra,0(sp)
     674:	dec00104 	addi	sp,sp,4
     678:	f800283a 	ret

0000067c <char_lcd_move_cursor>:
void char_lcd_move_cursor (int x, int y)
{
  char address = 0;
  
  address |= (x < LCD_X_MAX) ? x : LCD_X_MAX;
  address |= (y == 0) ? LCD_TOP_ROW : LCD_BOTTOM_ROW;  
     67c:	280ac03a 	cmpne	r5,r5,zero
     680:	280a91ba 	slli	r5,r5,6
  
  // write to the LCD instruction register
  *(instruction_ptr) = LCD_SET_CURSOR | address;		
     684:	d0e00417 	ldw	r3,-32752(gp)
     688:	008009c4 	movi	r2,39
     68c:	1100010e 	bge	r2,r4,694 <char_lcd_move_cursor+0x18>
     690:	1009883a 	mov	r4,r2
     694:	00bfe004 	movi	r2,-128
     698:	2084b03a 	or	r2,r4,r2
     69c:	1144b03a 	or	r2,r2,r5
     6a0:	18800005 	stb	r2,0(r3)
}
     6a4:	f800283a 	ret

000006a8 <char_lcd_write>:
/******************************************************************************
 * Subroutine to send a string of text to the LCD 
******************************************************************************/
void char_lcd_write (char *text)
{
	while (*(text))
     6a8:	20800007 	ldb	r2,0(r4)
     6ac:	10000726 	beq	r2,zero,6cc <char_lcd_write+0x24>
     6b0:	01400044 	movi	r5,1
	{
		*(data_ptr) = *(text);	// write to the LCD data register
     6b4:	20800003 	ldbu	r2,0(r4)
     6b8:	d0e00517 	ldw	r3,-32748(gp)
     6bc:	18800005 	stb	r2,0(r3)
	  text++;
     6c0:	2149883a 	add	r4,r4,r5
/******************************************************************************
 * Subroutine to send a string of text to the LCD 
******************************************************************************/
void char_lcd_write (char *text)
{
	while (*(text))
     6c4:	20800007 	ldb	r2,0(r4)
     6c8:	103ffa1e 	bne	r2,zero,6b4 <char_lcd_write+0xc>
     6cc:	f800283a 	ret

000006d0 <char_lcd_cursor_off>:
/******************************************************************************
 * Subroutine to turn off the LCD cursor
******************************************************************************/
void char_lcd_cursor_off (void)
{
	*(instruction_ptr) = LCD_CURSOR_OFF;	 // turn off the LCD cursor
     6d0:	00c00304 	movi	r3,12
     6d4:	d0a00417 	ldw	r2,-32752(gp)
     6d8:	10c00005 	stb	r3,0(r2)
}
     6dc:	f800283a 	ret

000006e0 <char_lcd_shift_left>:
/******************************************************************************
 * Subroutine to shift the LCD cursor one pixel to the left.
******************************************************************************/
void char_lcd_shift_left (void)
{
	*(instruction_ptr) = LCD_SHIFT_LEFT;	 // shift display to the left
     6e0:	00c00604 	movi	r3,24
     6e4:	d0a00417 	ldw	r2,-32752(gp)
     6e8:	10c00005 	stb	r3,0(r2)
}
     6ec:	f800283a 	ret

000006f0 <char_lcd_shift_right>:
/******************************************************************************
 * Subroutine to shift the LCD cursor one pixel to the right.
******************************************************************************/
void char_lcd_shift_right (void)
{
	*(instruction_ptr) = LCD_SHIFT_RIGHT;	 // shift display to the right
     6f0:	00c00704 	movi	r3,28
     6f4:	d0a00417 	ldw	r2,-32752(gp)
     6f8:	10c00005 	stb	r3,0(r2)
}
     6fc:	f800283a 	ret

00000700 <green_leds_set>:
static volatile int *data_reg = (int*) GREEN_LEDS_BASE;


void green_leds_set (uint32_t mask)
{
  *data_reg = mask;
     700:	d0a00617 	ldw	r2,-32744(gp)
     704:	11000015 	stw	r4,0(r2)
}
     708:	f800283a 	ret

0000070c <green_leds_update>:

void green_leds_update (uint32_t mask)
{
  *data_reg |= mask;
     70c:	d0e00617 	ldw	r3,-32744(gp)
     710:	18800017 	ldw	r2,0(r3)
     714:	1104b03a 	or	r2,r2,r4
     718:	18800015 	stw	r2,0(r3)
}
     71c:	f800283a 	ret

00000720 <green_leds_clear>:

void green_leds_clear (uint32_t mask)
{
  *data_reg &= ~mask;
     720:	d0a00617 	ldw	r2,-32744(gp)
     724:	10c00017 	ldw	r3,0(r2)
     728:	0108303a 	nor	r4,zero,r4
     72c:	1906703a 	and	r3,r3,r4
     730:	10c00015 	stw	r3,0(r2)
}
     734:	f800283a 	ret

00000738 <green_leds_clear_all>:

void green_leds_clear_all (void)
{
  *data_reg = 0;
     738:	d0a00617 	ldw	r2,-32744(gp)
     73c:	10000015 	stw	zero,0(r2)
     740:	f800283a 	ret

00000744 <hex_clear>:
}


void hex_clear (void)
{
  *hex_3to0 = 0;
     744:	d0a00817 	ldw	r2,-32736(gp)
     748:	10000015 	stw	zero,0(r2)
  *hex_7to4 = 0;
     74c:	d0a00717 	ldw	r2,-32740(gp)
     750:	10000015 	stw	zero,0(r2)
}
     754:	f800283a 	ret

00000758 <hex_clear_3to0>:

void hex_clear_3to0 (void)
{
  *hex_3to0 = 0;
     758:	d0a00817 	ldw	r2,-32736(gp)
     75c:	10000015 	stw	zero,0(r2)
}
     760:	f800283a 	ret

00000764 <hex_clear_7to4>:

void hex_clear_7to4 (void)
{
  *hex_7to4 = 0;
     764:	d0a00717 	ldw	r2,-32740(gp)
     768:	10000015 	stw	zero,0(r2)
}
     76c:	f800283a 	ret

00000770 <lookup_16>:



static uint32_t lookup_16 (uint32_t value)
{
     770:	200f883a 	mov	r7,r4
  if (value > 0xFFFF) 
     774:	00bfffd4 	movui	r2,65535
     778:	1100012e 	bgeu	r2,r4,780 <lookup_16+0x10>
    value %= 0x10000;
     77c:	208e703a 	and	r7,r4,r2
     780:	01400074 	movhi	r5,1
     784:	297dc704 	addi	r5,r5,-2276
     788:	3804d13a 	srli	r2,r7,4
     78c:	010003c4 	movi	r4,15
     790:	1104703a 	and	r2,r2,r4
     794:	1145883a 	add	r2,r2,r5
     798:	11800003 	ldbu	r6,0(r2)
     79c:	300c923a 	slli	r6,r6,8
     7a0:	3804d33a 	srli	r2,r7,12
     7a4:	1104703a 	and	r2,r2,r4
     7a8:	1145883a 	add	r2,r2,r5
     7ac:	10800003 	ldbu	r2,0(r2)
     7b0:	1004963a 	slli	r2,r2,24
     7b4:	3806d23a 	srli	r3,r7,8
     7b8:	1906703a 	and	r3,r3,r4
     7bc:	1947883a 	add	r3,r3,r5
     7c0:	18c00003 	ldbu	r3,0(r3)
     7c4:	1806943a 	slli	r3,r3,16
     7c8:	10c4b03a 	or	r2,r2,r3
     7cc:	3908703a 	and	r4,r7,r4
     7d0:	2149883a 	add	r4,r4,r5
     7d4:	20c00003 	ldbu	r3,0(r4)
     7d8:	10c4b03a 	or	r2,r2,r3
    
  return (table[(value >>12) & 0xF] << 24 |  // lookup segments for nibble 3
          table[(value >> 8) & 0xF] << 16 |  // lookup segments for nibble 2 
          table[(value >> 4) & 0xF] <<  8 |  // lookup segments for nibble 1
          table[ value & 0xF      ]);        // lookup segments for nibble 0
}
     7dc:	3084b03a 	or	r2,r6,r2
     7e0:	f800283a 	ret

000007e4 <lookup_10>:

static uint32_t lookup_10 (uint32_t value)
{
     7e4:	2013883a 	mov	r9,r4
  if (value > 9999) 
     7e8:	0089c3c4 	movi	r2,9999
     7ec:	1100042e 	bgeu	r2,r4,800 <lookup_10+0x1c>
    value %= 10000;
     7f0:	00c9c404 	movi	r3,10000
     7f4:	20c5203a 	divu	r2,r4,r3
     7f8:	10c5383a 	mul	r2,r2,r3
     7fc:	2093c83a 	sub	r9,r4,r2
     800:	01c00074 	movhi	r7,1
     804:	39fdc704 	addi	r7,r7,-2276
     808:	01401904 	movi	r5,100
     80c:	4945203a 	divu	r2,r9,r5
     810:	1145383a 	mul	r2,r2,r5
     814:	4885c83a 	sub	r2,r9,r2
     818:	01800284 	movi	r6,10
     81c:	1185203a 	divu	r2,r2,r6
     820:	11c5883a 	add	r2,r2,r7
     824:	12000003 	ldbu	r8,0(r2)
     828:	4010923a 	slli	r8,r8,8
     82c:	0100fa04 	movi	r4,1000
     830:	4907203a 	divu	r3,r9,r4
     834:	19c5883a 	add	r2,r3,r7
     838:	10800003 	ldbu	r2,0(r2)
     83c:	1004963a 	slli	r2,r2,24
     840:	1907383a 	mul	r3,r3,r4
     844:	48c7c83a 	sub	r3,r9,r3
     848:	1947203a 	divu	r3,r3,r5
     84c:	19c7883a 	add	r3,r3,r7
     850:	18c00003 	ldbu	r3,0(r3)
     854:	1806943a 	slli	r3,r3,16
     858:	10c4b03a 	or	r2,r2,r3
     85c:	4987203a 	divu	r3,r9,r6
     860:	1987383a 	mul	r3,r3,r6
     864:	48c7c83a 	sub	r3,r9,r3
     868:	19c7883a 	add	r3,r3,r7
     86c:	18c00003 	ldbu	r3,0(r3)
     870:	10c4b03a 	or	r2,r2,r3
    
  return (table[ value / 1000       ] << 24 |  // lookup segments for thousands digit
          table[(value % 1000) / 100] << 16 |  // lookup segments for hundreds digit
          table[(value % 100)  /  10] <<  8 |  // lookup segments for tens digit
          table[ value % 10         ]);        // lookup segments for ones digit 
}
     874:	4084b03a 	or	r2,r8,r2
     878:	f800283a 	ret

0000087c <hex_write_7to4>:
      break;
  }
}

void hex_write_7to4 (uint32_t value, enum number_base base)
{
     87c:	deffff04 	addi	sp,sp,-4
     880:	dfc00015 	stw	ra,0(sp)
  /* Lookup hex segments for bits 15-0 of value. */
  switch (base)
     884:	00800084 	movi	r2,2
     888:	28800326 	beq	r5,r2,898 <hex_write_7to4+0x1c>
     88c:	008000c4 	movi	r2,3
     890:	2880081e 	bne	r5,r2,8b4 <hex_write_7to4+0x38>
     894:	00000406 	br	8a8 <hex_write_7to4+0x2c>
  {
    case NUM_BASE_10: 
      *hex_7to4 = lookup_10 (value);
     898:	00007e40 	call	7e4 <lookup_10>
     89c:	d0e00717 	ldw	r3,-32740(gp)
     8a0:	18800015 	stw	r2,0(r3)
     8a4:	00000306 	br	8b4 <hex_write_7to4+0x38>
      break;
    case NUM_BASE_16:
      *hex_7to4 = lookup_16 (value);
     8a8:	00007700 	call	770 <lookup_16>
     8ac:	d0e00717 	ldw	r3,-32740(gp)
     8b0:	18800015 	stw	r2,0(r3)
      break;
  }
}
     8b4:	dfc00017 	ldw	ra,0(sp)
     8b8:	dec00104 	addi	sp,sp,4
     8bc:	f800283a 	ret

000008c0 <hex_write_3to0>:
      break;
  }
}

void hex_write_3to0 (uint32_t value, enum number_base base)
{
     8c0:	deffff04 	addi	sp,sp,-4
     8c4:	dfc00015 	stw	ra,0(sp)
  /* Lookup hex segments for bits 15-0 of value. */
  switch (base)
     8c8:	00800084 	movi	r2,2
     8cc:	28800326 	beq	r5,r2,8dc <hex_write_3to0+0x1c>
     8d0:	008000c4 	movi	r2,3
     8d4:	2880081e 	bne	r5,r2,8f8 <hex_write_3to0+0x38>
     8d8:	00000406 	br	8ec <hex_write_3to0+0x2c>
  {
    case NUM_BASE_10: 
      *hex_3to0 = lookup_10 (value);
     8dc:	00007e40 	call	7e4 <lookup_10>
     8e0:	d0e00817 	ldw	r3,-32736(gp)
     8e4:	18800015 	stw	r2,0(r3)
     8e8:	00000306 	br	8f8 <hex_write_3to0+0x38>
      break;
    case NUM_BASE_16:
      *hex_3to0 = lookup_16 (value);
     8ec:	00007700 	call	770 <lookup_16>
     8f0:	d0e00817 	ldw	r3,-32736(gp)
     8f4:	18800015 	stw	r2,0(r3)
      break;
  }
}
     8f8:	dfc00017 	ldw	ra,0(sp)
     8fc:	dec00104 	addi	sp,sp,4
     900:	f800283a 	ret

00000904 <hex_write>:
static uint32_t lookup_10 (uint32_t value);
static uint32_t lookup_16 (uint32_t value);


void hex_write (uint32_t value, enum number_base base)
{
     904:	defffd04 	addi	sp,sp,-12
     908:	dfc00215 	stw	ra,8(sp)
     90c:	dc400115 	stw	r17,4(sp)
     910:	dc000015 	stw	r16,0(sp)
     914:	2023883a 	mov	r17,r4
  /* Lookup hex segments for bits 15-0 of value. */
  switch (base)
     918:	00800084 	movi	r2,2
     91c:	28800326 	beq	r5,r2,92c <hex_write+0x28>
     920:	008000c4 	movi	r2,3
     924:	2880151e 	bne	r5,r2,97c <hex_write+0x78>
     928:	00000c06 	br	95c <hex_write+0x58>
  {
    case NUM_BASE_10: 
      *hex_3to0 = lookup_10 (value % 10000);
     92c:	0109c404 	movi	r4,10000
     930:	8921203a 	divu	r16,r17,r4
     934:	8109383a 	mul	r4,r16,r4
     938:	8909c83a 	sub	r4,r17,r4
     93c:	00007e40 	call	7e4 <lookup_10>
     940:	d0e00817 	ldw	r3,-32736(gp)
     944:	18800015 	stw	r2,0(r3)
      *hex_7to4 = lookup_10 (value / 10000);
     948:	8009883a 	mov	r4,r16
     94c:	00007e40 	call	7e4 <lookup_10>
     950:	d0e00717 	ldw	r3,-32740(gp)
     954:	18800015 	stw	r2,0(r3)
     958:	00000806 	br	97c <hex_write+0x78>
      break;
    case NUM_BASE_16:
      *hex_3to0 = lookup_16 (value & 0x0000FFFF);
     95c:	213fffcc 	andi	r4,r4,65535
     960:	00007700 	call	770 <lookup_16>
     964:	d0e00817 	ldw	r3,-32736(gp)
     968:	18800015 	stw	r2,0(r3)
      *hex_7to4 = lookup_16 (value >> 16);
     96c:	8808d43a 	srli	r4,r17,16
     970:	00007700 	call	770 <lookup_16>
     974:	d0e00717 	ldw	r3,-32740(gp)
     978:	18800015 	stw	r2,0(r3)
      break;
  }
}
     97c:	dfc00217 	ldw	ra,8(sp)
     980:	dc400117 	ldw	r17,4(sp)
     984:	dc000017 	ldw	r16,0(sp)
     988:	dec00304 	addi	sp,sp,12
     98c:	f800283a 	ret

00000990 <lcd_enable_dma>:
/*****************************************************************************
 * Enables DMA transfer of video data from memory to LCD.                    *
******************************************************************************/
void lcd_enable_dma (bool enable)
{
  if (enable)
     990:	21003fcc 	andi	r4,r4,255
     994:	20000526 	beq	r4,zero,9ac <lcd_enable_dma+0x1c>
    *status_reg |= DMA_STATUS_ENABLE_MASK;
     998:	d0e00c17 	ldw	r3,-32720(gp)
     99c:	18800017 	ldw	r2,0(r3)
     9a0:	10800114 	ori	r2,r2,4
     9a4:	18800015 	stw	r2,0(r3)
     9a8:	f800283a 	ret
  else
    *status_reg &= ~DMA_STATUS_ENABLE_MASK;
     9ac:	d0a00c17 	ldw	r2,-32720(gp)
     9b0:	10c00017 	ldw	r3,0(r2)
     9b4:	013ffec4 	movi	r4,-5
     9b8:	1906703a 	and	r3,r3,r4
     9bc:	10c00015 	stw	r3,0(r2)
     9c0:	f800283a 	ret

000009c4 <lcd_set_front_buffer>:
/*****************************************************************************
 * Sets the front buffer base address.                                       *
******************************************************************************/
void lcd_set_front_buffer (int *buff)
{
  *back_buff_reg = buff;
     9c4:	d0a00917 	ldw	r2,-32732(gp)
     9c8:	11000015 	stw	r4,0(r2)
  *front_buff_reg = 1;
     9cc:	00c00044 	movi	r3,1
     9d0:	d0a00b17 	ldw	r2,-32724(gp)
     9d4:	10c00015 	stw	r3,0(r2)
}
     9d8:	f800283a 	ret

000009dc <lcd_set_back_buffer>:
/*****************************************************************************
 * Sets the back buffer base address.                                        *
******************************************************************************/
void lcd_set_back_buffer (int *buff)
{
  *back_buff_reg = buff;
     9dc:	d0a00917 	ldw	r2,-32732(gp)
     9e0:	11000015 	stw	r4,0(r2)
}
     9e4:	f800283a 	ret

000009e8 <lcd_swap_buffers>:
 * Swaps the front and back buffer base addresses.                           *
******************************************************************************/
void lcd_swap_buffers(void)
{
	/* Request a buffer swap */
	*front_buff_reg = 1;
     9e8:	00c00044 	movi	r3,1
     9ec:	d0a00b17 	ldw	r2,-32724(gp)
     9f0:	10c00015 	stw	r3,0(r2)

	/* Wait for vertical synchronization */
	while ((*status_reg & 0x01) != 0);
     9f4:	d1200c17 	ldw	r4,-32720(gp)
     9f8:	20800017 	ldw	r2,0(r4)
     9fc:	10c4703a 	and	r2,r2,r3
     a00:	103ffd1e 	bne	r2,zero,9f8 <lcd_swap_buffers+0x10>
}
     a04:	f800283a 	ret

00000a08 <lcd_write>:
  int char_x = x * 8;
  int char_y = y * 8;

  /* assume that the text string fits on one line */
  offset = (y << 6) + x;
  while ( *(text) )
     a08:	30800007 	ldb	r2,0(r6)
     a0c:	10000b26 	beq	r2,zero,a3c <lcd_write+0x34>
     a10:	280491ba 	slli	r2,r5,6
     a14:	2085883a 	add	r2,r4,r2
     a18:	d0e00a17 	ldw	r3,-32728(gp)
     a1c:	10c9883a 	add	r4,r2,r3
     a20:	00c00044 	movi	r3,1
  {
    *(char_buff_base + offset) = *(text);  // write to the character buffer
     a24:	30800003 	ldbu	r2,0(r6)
     a28:	20800005 	stb	r2,0(r4)
    text++;
     a2c:	30cd883a 	add	r6,r6,r3
  int char_x = x * 8;
  int char_y = y * 8;

  /* assume that the text string fits on one line */
  offset = (y << 6) + x;
  while ( *(text) )
     a30:	20c9883a 	add	r4,r4,r3
     a34:	30800007 	ldb	r2,0(r6)
     a38:	103ffa1e 	bne	r2,zero,a24 <lcd_write+0x1c>
     a3c:	f800283a 	ret

00000a40 <lcd_draw_rectangle>:

/*****************************************************************************
 * Draws a filled rectangle on the LCD.                                      *
******************************************************************************/
void lcd_draw_rectangle(int x, int y, int width, int height, short color)
{
     a40:	da80000b 	ldhu	r10,0(sp)
  int i, j, offset;
  volatile short *pixel_buffer = (short *) (*front_buff_reg);
     a44:	d0a00b17 	ldw	r2,-32724(gp)
     a48:	12400017 	ldw	r9,0(r2)

  for(i = x; i <= (x + width - 1); i++)
     a4c:	218d883a 	add	r6,r4,r6
     a50:	31bfffc4 	addi	r6,r6,-1
     a54:	31001116 	blt	r6,r4,a9c <lcd_draw_rectangle+0x5c>
     a58:	29c5883a 	add	r2,r5,r7
     a5c:	11ffffc4 	addi	r7,r2,-1
     a60:	02c00044 	movi	r11,1
     a64:	00000b06 	br	a94 <lcd_draw_rectangle+0x54>
     a68:	2807883a 	mov	r3,r5
     a6c:	02000044 	movi	r8,1
  {
    for(j = y; j <= (y + height -1); j++)
    {
      offset = (j << 9) + i;
      *(pixel_buffer + offset) = color;
     a70:	1804927a 	slli	r2,r3,9
     a74:	1105883a 	add	r2,r2,r4
     a78:	1085883a 	add	r2,r2,r2
     a7c:	4885883a 	add	r2,r9,r2
     a80:	1280000d 	sth	r10,0(r2)
  int i, j, offset;
  volatile short *pixel_buffer = (short *) (*front_buff_reg);

  for(i = x; i <= (x + width - 1); i++)
  {
    for(j = y; j <= (y + height -1); j++)
     a84:	1a07883a 	add	r3,r3,r8
     a88:	38fff90e 	bge	r7,r3,a70 <lcd_draw_rectangle+0x30>
void lcd_draw_rectangle(int x, int y, int width, int height, short color)
{
  int i, j, offset;
  volatile short *pixel_buffer = (short *) (*front_buff_reg);

  for(i = x; i <= (x + width - 1); i++)
     a8c:	22c9883a 	add	r4,r4,r11
     a90:	31000216 	blt	r6,r4,a9c <lcd_draw_rectangle+0x5c>
  {
    for(j = y; j <= (y + height -1); j++)
     a94:	397ff40e 	bge	r7,r5,a68 <lcd_draw_rectangle+0x28>
     a98:	003ffc06 	br	a8c <lcd_draw_rectangle+0x4c>
     a9c:	f800283a 	ret

00000aa0 <lcd_draw_rectangle_back>:
    }
  }
}

void lcd_draw_rectangle_back(int x, int y, int width, int height, short color)
{
     aa0:	da80000b 	ldhu	r10,0(sp)
  int i, j, offset;
  volatile short *pixel_buffer = (short *) (*back_buff_reg);
     aa4:	d0a00917 	ldw	r2,-32732(gp)
     aa8:	12400017 	ldw	r9,0(r2)

  for(i = x; i <= (x + width - 1); i++)
     aac:	218d883a 	add	r6,r4,r6
     ab0:	31bfffc4 	addi	r6,r6,-1
     ab4:	31001116 	blt	r6,r4,afc <lcd_draw_rectangle_back+0x5c>
     ab8:	29c5883a 	add	r2,r5,r7
     abc:	11ffffc4 	addi	r7,r2,-1
     ac0:	02c00044 	movi	r11,1
     ac4:	00000b06 	br	af4 <lcd_draw_rectangle_back+0x54>
     ac8:	2807883a 	mov	r3,r5
     acc:	02000044 	movi	r8,1
  {
    for(j = y; j <= (y + height -1); j++)
    {
      offset = (j << 9) + i;
      *(pixel_buffer + offset) = color;
     ad0:	1804927a 	slli	r2,r3,9
     ad4:	1105883a 	add	r2,r2,r4
     ad8:	1085883a 	add	r2,r2,r2
     adc:	4885883a 	add	r2,r9,r2
     ae0:	1280000d 	sth	r10,0(r2)
  int i, j, offset;
  volatile short *pixel_buffer = (short *) (*back_buff_reg);

  for(i = x; i <= (x + width - 1); i++)
  {
    for(j = y; j <= (y + height -1); j++)
     ae4:	1a07883a 	add	r3,r3,r8
     ae8:	38fff90e 	bge	r7,r3,ad0 <lcd_draw_rectangle_back+0x30>
void lcd_draw_rectangle_back(int x, int y, int width, int height, short color)
{
  int i, j, offset;
  volatile short *pixel_buffer = (short *) (*back_buff_reg);

  for(i = x; i <= (x + width - 1); i++)
     aec:	22c9883a 	add	r4,r4,r11
     af0:	31000216 	blt	r6,r4,afc <lcd_draw_rectangle_back+0x5c>
  {
    for(j = y; j <= (y + height -1); j++)
     af4:	397ff40e 	bge	r7,r5,ac8 <lcd_draw_rectangle_back+0x28>
     af8:	003ffc06 	br	aec <lcd_draw_rectangle_back+0x4c>
     afc:	f800283a 	ret

00000b00 <lcd_char_buffer_clear>:
  int i, j, offset;
  for (i = 0; i < LCD_CHAR_BUFF_RES_X; i++)
    for (j = 0; j < LCD_CHAR_BUFF_RES_Y; j++)
      {
        offset = (j << 6) + i;
        *(char_buff_base + offset) = ' ';  // write to the character buffer
     b00:	d1a00a17 	ldw	r6,-32728(gp)
     b04:	000b883a 	mov	r5,zero
     b08:	00000c06 	br	b3c <lcd_char_buffer_clear+0x3c>
     b0c:	200491ba 	slli	r2,r4,6
     b10:	1145883a 	add	r2,r2,r5
     b14:	3085883a 	add	r2,r6,r2
     b18:	00c00804 	movi	r3,32
     b1c:	10c00005 	stb	r3,0(r2)
  int char_x = 0;
  int char_y = 0;

  int i, j, offset;
  for (i = 0; i < LCD_CHAR_BUFF_RES_X; i++)
    for (j = 0; j < LCD_CHAR_BUFF_RES_Y; j++)
     b20:	00c00044 	movi	r3,1
     b24:	20c9883a 	add	r4,r4,r3
     b28:	00800784 	movi	r2,30
     b2c:	20bff71e 	bne	r4,r2,b0c <lcd_char_buffer_clear+0xc>
{
  int char_x = 0;
  int char_y = 0;

  int i, j, offset;
  for (i = 0; i < LCD_CHAR_BUFF_RES_X; i++)
     b30:	28cb883a 	add	r5,r5,r3
     b34:	00800c84 	movi	r2,50
     b38:	28800226 	beq	r5,r2,b44 <lcd_char_buffer_clear+0x44>
    for (j = 0; j < LCD_CHAR_BUFF_RES_Y; j++)
      {
        offset = (j << 6) + i;
        *(char_buff_base + offset) = ' ';  // write to the character buffer
      }
}
     b3c:	0009883a 	mov	r4,zero
     b40:	003ff206 	br	b0c <lcd_char_buffer_clear+0xc>
     b44:	f800283a 	ret

00000b48 <lcd_get_backbuffer_addr>:

void *lcd_get_backbuffer_addr (void)
{
  return *back_buff_reg;
     b48:	d0a00917 	ldw	r2,-32732(gp)
     b4c:	10800017 	ldw	r2,0(r2)
}
     b50:	f800283a 	ret

00000b54 <pushbuttons_get_data>:
  alt_irq_register (PUSHBUTTONS_IRQ, NULL, isr);
}

uint32_t pushbuttons_get_data (void)
{
  return *data_reg;
     b54:	d0a00f17 	ldw	r2,-32708(gp)
     b58:	10800017 	ldw	r2,0(r2)
}
     b5c:	f800283a 	ret

00000b60 <pushbuttons_set_interrupt_mask>:

void pushbuttons_set_interrupt_mask (uint32_t mask)
{
  *interrupt_mask_reg = mask;
     b60:	d0a00e17 	ldw	r2,-32712(gp)
     b64:	11000015 	stw	r4,0(r2)
}
     b68:	f800283a 	ret

00000b6c <pushbuttons_get_interrupt_mask>:

uint32_t pushbuttons_get_interrupt_mask (void)
{
  return *interrupt_mask_reg;
     b6c:	d0a00e17 	ldw	r2,-32712(gp)
     b70:	10800017 	ldw	r2,0(r2)
}
     b74:	f800283a 	ret

00000b78 <pushbuttons_get_edge_capture>:

uint32_t pushbuttons_get_edge_capture (void)
{
  return *edge_capture_reg;
     b78:	d0a00d17 	ldw	r2,-32716(gp)
     b7c:	10800017 	ldw	r2,0(r2)
}
     b80:	f800283a 	ret

00000b84 <pushbuttons_clear_edge_capture>:

void pushbuttons_clear_edge_capture (void)
{
  *edge_capture_reg = 1;
     b84:	00c00044 	movi	r3,1
     b88:	d0a00d17 	ldw	r2,-32716(gp)
     b8c:	10c00015 	stw	r3,0(r2)
}
     b90:	f800283a 	ret

00000b94 <pushbuttons_enable_interrupts>:
static volatile int *interrupt_mask_reg = (int*) (PUSHBUTTONS_BASE +  8);
static volatile int *edge_capture_reg   = (int*) (PUSHBUTTONS_BASE + 12);


void pushbuttons_enable_interrupts (void *isr)
{
     b94:	defffe04 	addi	sp,sp,-8
     b98:	dfc00115 	stw	ra,4(sp)
     b9c:	dc000015 	stw	r16,0(sp)
     ba0:	2021883a 	mov	r16,r4
  pushbuttons_set_interrupt_mask (DEFAULT_INTERRUPT_MASK);
     ba4:	01000384 	movi	r4,14
     ba8:	0000b600 	call	b60 <pushbuttons_set_interrupt_mask>
  alt_irq_register (PUSHBUTTONS_IRQ, NULL, isr);
     bac:	01000044 	movi	r4,1
     bb0:	000b883a 	mov	r5,zero
     bb4:	800d883a 	mov	r6,r16
     bb8:	000cd440 	call	cd44 <alt_irq_register>
}
     bbc:	dfc00117 	ldw	ra,4(sp)
     bc0:	dc000017 	ldw	r16,0(sp)
     bc4:	dec00204 	addi	sp,sp,8
     bc8:	f800283a 	ret

00000bcc <red_leds_set>:
static volatile int *data_reg = (int*) RED_LEDS_BASE;


void red_leds_set (uint32_t mask)
{
  *data_reg = mask;
     bcc:	d0a01017 	ldw	r2,-32704(gp)
     bd0:	11000015 	stw	r4,0(r2)
}
     bd4:	f800283a 	ret

00000bd8 <red_leds_update>:

void red_leds_update (uint32_t mask)
{
  *data_reg |= mask;
     bd8:	d0e01017 	ldw	r3,-32704(gp)
     bdc:	18800017 	ldw	r2,0(r3)
     be0:	1104b03a 	or	r2,r2,r4
     be4:	18800015 	stw	r2,0(r3)
}
     be8:	f800283a 	ret

00000bec <red_leds_clear>:

void red_leds_clear (uint32_t mask)
{
  *data_reg &= ~mask;
     bec:	d0a01017 	ldw	r2,-32704(gp)
     bf0:	10c00017 	ldw	r3,0(r2)
     bf4:	0108303a 	nor	r4,zero,r4
     bf8:	1906703a 	and	r3,r3,r4
     bfc:	10c00015 	stw	r3,0(r2)
}
     c00:	f800283a 	ret

00000c04 <red_leds_clear_all>:

void red_leds_clear_all (void)
{
  *data_reg = 0;
     c04:	d0a01017 	ldw	r2,-32704(gp)
     c08:	10000015 	stw	zero,0(r2)
}
     c0c:	f800283a 	ret

00000c10 <get_char>:
#include "rs232.h"

char get_char(void) {
volatile int* RS232_UART_ptr = (int*) SERIAL_PORT_BASE; // RS232 UART address
int data;
data = *(RS232_UART_ptr); // read the RS232_UART data register
     c10:	00840034 	movhi	r2,4096
     c14:	10840404 	addi	r2,r2,4112
     c18:	10c00017 	ldw	r3,0(r2)
if (data & 0x00008000) // check RVALID to see if there is new data
     c1c:	18a0000c 	andi	r2,r3,32768
     c20:	10000326 	beq	r2,zero,c30 <get_char+0x20>
	return((char) data & 0xFF);
     c24:	18803fcc 	andi	r2,r3,255
     c28:	1080201c 	xori	r2,r2,128
     c2c:	10bfe004 	addi	r2,r2,-128
else
	return('\0');
}
     c30:	f800283a 	ret

00000c34 <put_char>:

unsigned char put_char(char c) {
	volatile int* RS232_UART_ptr = (int *) SERIAL_PORT_BASE; // RS232 UART address
	int control;
	control = *(RS232_UART_ptr + 1);   // read the RS232_UART control register
     c34:	00840034 	movhi	r2,4096
     c38:	10840504 	addi	r2,r2,4116
     c3c:	10800017 	ldw	r2,0(r2)
	if (control & 0x00FF0000) {
     c40:	10803fec 	andhi	r2,r2,255
     c44:	1000021e 	bne	r2,zero,c50 <put_char+0x1c>
     c48:	00800044 	movi	r2,1
     c4c:	f800283a 	ret
		*(RS232_UART_ptr) = c;
     c50:	20c03fcc 	andi	r3,r4,255
     c54:	18c0201c 	xori	r3,r3,128
     c58:	18ffe004 	addi	r3,r3,-128
     c5c:	00840034 	movhi	r2,4096
     c60:	10840404 	addi	r2,r2,4112
     c64:	10c00015 	stw	r3,0(r2)
     c68:	0005883a 	mov	r2,zero
		//success
		return (unsigned char) 0;
	}
	return (unsigned char) 1;
}
     c6c:	f800283a 	ret

00000c70 <switches_get_positions>:
  alt_irq_register (SLIDER_SWITCHES_IRQ, NULL, isr);
}

uint32_t switches_get_positions (void)
{
  return *data_reg;
     c70:	d0a01317 	ldw	r2,-32692(gp)
     c74:	10800017 	ldw	r2,0(r2)
}
     c78:	f800283a 	ret

00000c7c <switches_set_interrupt_mask>:

void switches_set_interrupt_mask (uint32_t mask)
{
  *interrupt_mask_reg = mask;
     c7c:	d0a01217 	ldw	r2,-32696(gp)
     c80:	11000015 	stw	r4,0(r2)
}
     c84:	f800283a 	ret

00000c88 <switches_get_interrupt_mask>:

uint32_t switches_get_interrupt_mask (void)
{
  return *interrupt_mask_reg;
     c88:	d0a01217 	ldw	r2,-32696(gp)
     c8c:	10800017 	ldw	r2,0(r2)
}
     c90:	f800283a 	ret

00000c94 <switches_get_edge_capture>:

uint32_t switches_get_edge_capture (void)
{
  return *edge_capture_reg;
     c94:	d0a01117 	ldw	r2,-32700(gp)
     c98:	10800017 	ldw	r2,0(r2)
}
     c9c:	f800283a 	ret

00000ca0 <switches_clear_edge_capture>:

void switches_clear_edge_capture (void)
{
  *edge_capture_reg = 1;
     ca0:	00c00044 	movi	r3,1
     ca4:	d0a01117 	ldw	r2,-32700(gp)
     ca8:	10c00015 	stw	r3,0(r2)
}
     cac:	f800283a 	ret

00000cb0 <switches_enable_interrupts>:
static volatile int *interrupt_mask_reg = (int*) (SLIDER_SWITCHES_BASE +  8);
static volatile int *edge_capture_reg   = (int*) (SLIDER_SWITCHES_BASE + 12);


void switches_enable_interrupts (void *isr)
{
     cb0:	defffe04 	addi	sp,sp,-8
     cb4:	dfc00115 	stw	ra,4(sp)
     cb8:	dc000015 	stw	r16,0(sp)
     cbc:	2021883a 	mov	r16,r4
  switches_set_interrupt_mask (DEFAULT_INTERRUPT_MASK);
     cc0:	01000134 	movhi	r4,4
     cc4:	213fffc4 	addi	r4,r4,-1
     cc8:	0000c7c0 	call	c7c <switches_set_interrupt_mask>
  alt_irq_register (SLIDER_SWITCHES_IRQ, NULL, isr);
     ccc:	01000144 	movi	r4,5
     cd0:	000b883a 	mov	r5,zero
     cd4:	800d883a 	mov	r6,r16
     cd8:	000cd440 	call	cd44 <alt_irq_register>
}
     cdc:	dfc00117 	ldw	ra,4(sp)
     ce0:	dc000017 	ldw	r16,0(sp)
     ce4:	dec00204 	addi	sp,sp,8
     ce8:	f800283a 	ret

00000cec <vga_enable_dma>:
static volatile char *char_buff_base = (char*) VGA_CHAR_BUFFER_AVALON_CHAR_BUFFER_SLAVE_BASE;


void vga_enable_dma (bool enable)
{
  if (enable)
     cec:	21003fcc 	andi	r4,r4,255
     cf0:	20000526 	beq	r4,zero,d08 <vga_enable_dma+0x1c>
    *status_reg |= DMA_STATUS_ENABLE_MASK;
     cf4:	d0e01617 	ldw	r3,-32680(gp)
     cf8:	18800017 	ldw	r2,0(r3)
     cfc:	10800114 	ori	r2,r2,4
     d00:	18800015 	stw	r2,0(r3)
     d04:	f800283a 	ret
  else
    *status_reg &= ~DMA_STATUS_ENABLE_MASK;
     d08:	d0a01617 	ldw	r2,-32680(gp)
     d0c:	10c00017 	ldw	r3,0(r2)
     d10:	013ffec4 	movi	r4,-5
     d14:	1906703a 	and	r3,r3,r4
     d18:	10c00015 	stw	r3,0(r2)
     d1c:	f800283a 	ret

00000d20 <vga_set_front_buffer>:
/******************************************************************************
 * Subroutine to set the back buffer base address.
******************************************************************************/
void vga_set_front_buffer (int *buff)
{
  *back_buff_reg = buff;
     d20:	d0a01717 	ldw	r2,-32676(gp)
     d24:	11000015 	stw	r4,0(r2)
  *front_buff_reg = 1;
     d28:	00c00044 	movi	r3,1
     d2c:	d0a01517 	ldw	r2,-32684(gp)
     d30:	10c00015 	stw	r3,0(r2)
}
     d34:	f800283a 	ret

00000d38 <vga_set_back_buffer>:

void vga_set_back_buffer (int *buff)
{
  *back_buff_reg = buff;
     d38:	d0a01717 	ldw	r2,-32676(gp)
     d3c:	11000015 	stw	r4,0(r2)
}
     d40:	f800283a 	ret

00000d44 <vga_swap_buffers>:

void vga_swap_buffers(void)
{
	// Request a buffer swap
	*front_buff_reg = 1;
     d44:	00c00044 	movi	r3,1
     d48:	d0a01517 	ldw	r2,-32684(gp)
     d4c:	10c00015 	stw	r3,0(r2)

	// Wait for vertical synchronization.
	while ((*status_reg & 0x01) != 0);
     d50:	d1201617 	ldw	r4,-32680(gp)
     d54:	20800017 	ldw	r2,0(r4)
     d58:	10c4703a 	and	r2,r2,r3
     d5c:	103ffd1e 	bne	r2,zero,d54 <vga_swap_buffers+0x10>
}
     d60:	f800283a 	ret

00000d64 <vga_write>:
  int char_x = x * 4;
  int char_y = y * 4;

  /* assume that the text string fits on one line */
  offset = (y << 7) + x;
  while ( *(text) )
     d64:	30800007 	ldb	r2,0(r6)
     d68:	10000b26 	beq	r2,zero,d98 <vga_write+0x34>
     d6c:	280491fa 	slli	r2,r5,7
     d70:	2085883a 	add	r2,r4,r2
     d74:	d0e01417 	ldw	r3,-32688(gp)
     d78:	10c9883a 	add	r4,r2,r3
     d7c:	00c00044 	movi	r3,1
  {
    *(char_buff_base + offset) = *(text);  // write to the character buffer
     d80:	30800003 	ldbu	r2,0(r6)
     d84:	20800005 	stb	r2,0(r4)
    text++;
     d88:	30cd883a 	add	r6,r6,r3
  int char_x = x * 4;
  int char_y = y * 4;

  /* assume that the text string fits on one line */
  offset = (y << 7) + x;
  while ( *(text) )
     d8c:	20c9883a 	add	r4,r4,r3
     d90:	30800007 	ldb	r2,0(r6)
     d94:	103ffa1e 	bne	r2,zero,d80 <vga_write+0x1c>
     d98:	f800283a 	ret

00000d9c <vga_draw_rectangle>:

/*****************************************************************************
 * Draw a filled rectangle on the VGA.
******************************************************************************/
void vga_draw_rectangle(int x, int y, int width, int height, short color)
{
     d9c:	da80000b 	ldhu	r10,0(sp)
  int i, j, offset;
  volatile short *pixel_buffer = (short *) (*front_buff_reg);
     da0:	d0a01517 	ldw	r2,-32684(gp)
     da4:	12400017 	ldw	r9,0(r2)

  for(i = x; i <= (x + width - 1); i++)
     da8:	218d883a 	add	r6,r4,r6
     dac:	31bfffc4 	addi	r6,r6,-1
     db0:	31001116 	blt	r6,r4,df8 <vga_draw_rectangle+0x5c>
     db4:	29c5883a 	add	r2,r5,r7
     db8:	11ffffc4 	addi	r7,r2,-1
     dbc:	02c00044 	movi	r11,1
     dc0:	00000b06 	br	df0 <vga_draw_rectangle+0x54>
     dc4:	2807883a 	mov	r3,r5
     dc8:	02000044 	movi	r8,1
  {
    for(j = y; j <= (y + height -1); j++)
    {
      offset = (j << 9) + i;
      *(pixel_buffer + offset) = color;
     dcc:	1804927a 	slli	r2,r3,9
     dd0:	1105883a 	add	r2,r2,r4
     dd4:	1085883a 	add	r2,r2,r2
     dd8:	4885883a 	add	r2,r9,r2
     ddc:	1280000d 	sth	r10,0(r2)
  int i, j, offset;
  volatile short *pixel_buffer = (short *) (*front_buff_reg);

  for(i = x; i <= (x + width - 1); i++)
  {
    for(j = y; j <= (y + height -1); j++)
     de0:	1a07883a 	add	r3,r3,r8
     de4:	38fff90e 	bge	r7,r3,dcc <vga_draw_rectangle+0x30>
void vga_draw_rectangle(int x, int y, int width, int height, short color)
{
  int i, j, offset;
  volatile short *pixel_buffer = (short *) (*front_buff_reg);

  for(i = x; i <= (x + width - 1); i++)
     de8:	22c9883a 	add	r4,r4,r11
     dec:	31000216 	blt	r6,r4,df8 <vga_draw_rectangle+0x5c>
  {
    for(j = y; j <= (y + height -1); j++)
     df0:	397ff40e 	bge	r7,r5,dc4 <vga_draw_rectangle+0x28>
     df4:	003ffc06 	br	de8 <vga_draw_rectangle+0x4c>
     df8:	f800283a 	ret

00000dfc <vga_char_buffer_clear>:
  int i, j, offset;
  for (i = 0; i < VGA_CHAR_BUFF_RES_X; i++)
    for (j = 0; j < VGA_CHAR_BUFF_RES_Y; j++)
      {
        offset = (j << 6) + i;
        *(char_buff_base + offset) = ' ';  // write to the character buffer
     dfc:	d1a01417 	ldw	r6,-32688(gp)
     e00:	000b883a 	mov	r5,zero
     e04:	00000c06 	br	e38 <vga_char_buffer_clear+0x3c>
     e08:	200491ba 	slli	r2,r4,6
     e0c:	1145883a 	add	r2,r2,r5
     e10:	3085883a 	add	r2,r6,r2
     e14:	00c00804 	movi	r3,32
     e18:	10c00005 	stb	r3,0(r2)
  int char_x = 0;
  int char_y = 0;

  int i, j, offset;
  for (i = 0; i < VGA_CHAR_BUFF_RES_X; i++)
    for (j = 0; j < VGA_CHAR_BUFF_RES_Y; j++)
     e1c:	00c00044 	movi	r3,1
     e20:	20c9883a 	add	r4,r4,r3
     e24:	00800f04 	movi	r2,60
     e28:	20bff71e 	bne	r4,r2,e08 <vga_char_buffer_clear+0xc>
{
  int char_x = 0;
  int char_y = 0;

  int i, j, offset;
  for (i = 0; i < VGA_CHAR_BUFF_RES_X; i++)
     e2c:	28cb883a 	add	r5,r5,r3
     e30:	00801404 	movi	r2,80
     e34:	28800226 	beq	r5,r2,e40 <vga_char_buffer_clear+0x44>
    for (j = 0; j < VGA_CHAR_BUFF_RES_Y; j++)
      {
        offset = (j << 6) + i;
        *(char_buff_base + offset) = ' ';  // write to the character buffer
      }
}
     e38:	0009883a 	mov	r4,zero
     e3c:	003ff206 	br	e08 <vga_char_buffer_clear+0xc>
     e40:	f800283a 	ret

00000e44 <signal_audio_ready>:
  }
}
/* Called by the audio ISR to signal the main loop that samples are ready
 * for the FFT. */
inline void signal_audio_ready () {
  audio_ready = true;
     e44:	00800044 	movi	r2,1
     e48:	d087fa05 	stb	r2,8168(gp)
}
     e4c:	f800283a 	ret

00000e50 <fft_mag_window>:
      }
  }
  return 0;
}

void fft_mag_window (double* output) {
     e50:	defef204 	addi	sp,sp,-1080
     e54:	dfc10d15 	stw	ra,1076(sp)
     e58:	df010c15 	stw	fp,1072(sp)
     e5c:	ddc10b15 	stw	r23,1068(sp)
     e60:	dd810a15 	stw	r22,1064(sp)
     e64:	dd410915 	stw	r21,1060(sp)
     e68:	dd010815 	stw	r20,1056(sp)
     e6c:	dcc10715 	stw	r19,1052(sp)
     e70:	dc810615 	stw	r18,1048(sp)
     e74:	dc410515 	stw	r17,1044(sp)
     e78:	dc010415 	stw	r16,1040(sp)
     e7c:	d9010115 	stw	r4,1028(sp)
     e80:	d9010315 	stw	r4,1036(sp)
     e84:	d8010215 	stw	zero,1032(sp)
     e88:	d8010015 	stw	zero,1024(sp)
  // Results in 2*NUM_SAMPLES / FFT_LEN - 1 overlapping frames
  // because we loose one at the end
  int offset = FFT_LEN / 2;
  for (j = 0; j < numFrames; j++)
  {
    kiss_fft (fft_cfg, samples_for_fft + j*offset, fft_output);
     e8c:	d107fb17 	ldw	r4,8172(gp)
     e90:	01400274 	movhi	r5,9
     e94:	295d4504 	addi	r5,r5,29972
     e98:	d8810217 	ldw	r2,1032(sp)
     e9c:	114b883a 	add	r5,r2,r5
     ea0:	d80d883a 	mov	r6,sp
     ea4:	00004180 	call	418 <kiss_fft>
    double norm = 0;
    for (i = 0; i < FFT_LEN; i++)
      {
        //printf("%d %d\n", fft_output[i].r, fft_output[i].i);
        mag2 = (double)fft_output[i].r*(double)fft_output[i].r + (double)fft_output[i].i*(double)fft_output[i].i;
     ea8:	d9000017 	ldw	r4,0(sp)
     eac:	0003f600 	call	3f60 <__floatsidf>
     eb0:	1021883a 	mov	r16,r2
     eb4:	1823883a 	mov	r17,r3
     eb8:	d9000117 	ldw	r4,4(sp)
     ebc:	0003f600 	call	3f60 <__floatsidf>
     ec0:	1009883a 	mov	r4,r2
     ec4:	180b883a 	mov	r5,r3
     ec8:	100d883a 	mov	r6,r2
     ecc:	180f883a 	mov	r7,r3
     ed0:	000369c0 	call	369c <__muldf3>
     ed4:	1025883a 	mov	r18,r2
     ed8:	1827883a 	mov	r19,r3
     edc:	8009883a 	mov	r4,r16
     ee0:	880b883a 	mov	r5,r17
     ee4:	800d883a 	mov	r6,r16
     ee8:	880f883a 	mov	r7,r17
     eec:	000369c0 	call	369c <__muldf3>
     ef0:	9009883a 	mov	r4,r18
     ef4:	980b883a 	mov	r5,r19
     ef8:	100d883a 	mov	r6,r2
     efc:	180f883a 	mov	r7,r3
     f00:	00036280 	call	3628 <__adddf3>
     f04:	1021883a 	mov	r16,r2
     f08:	1823883a 	mov	r17,r3
     f0c:	df010017 	ldw	fp,1024(sp)
     f10:	002f883a 	mov	r23,zero
     f14:	0029883a 	mov	r20,zero
     f18:	002b883a 	mov	r21,zero
     f1c:	00001e06 	br	f98 <fft_mag_window+0x148>
     f20:	b1000017 	ldw	r4,0(r22)
     f24:	0003f600 	call	3f60 <__floatsidf>
     f28:	1021883a 	mov	r16,r2
     f2c:	1823883a 	mov	r17,r3
     f30:	b1000117 	ldw	r4,4(r22)
     f34:	0003f600 	call	3f60 <__floatsidf>
     f38:	1025883a 	mov	r18,r2
     f3c:	1827883a 	mov	r19,r3
     f40:	8009883a 	mov	r4,r16
     f44:	880b883a 	mov	r5,r17
     f48:	800d883a 	mov	r6,r16
     f4c:	880f883a 	mov	r7,r17
     f50:	000369c0 	call	369c <__muldf3>
     f54:	1021883a 	mov	r16,r2
     f58:	1823883a 	mov	r17,r3
     f5c:	9009883a 	mov	r4,r18
     f60:	980b883a 	mov	r5,r19
     f64:	900d883a 	mov	r6,r18
     f68:	980f883a 	mov	r7,r19
     f6c:	000369c0 	call	369c <__muldf3>
     f70:	8009883a 	mov	r4,r16
     f74:	880b883a 	mov	r5,r17
     f78:	100d883a 	mov	r6,r2
     f7c:	180f883a 	mov	r7,r3
     f80:	00036280 	call	3628 <__adddf3>
     f84:	1021883a 	mov	r16,r2
     f88:	1823883a 	mov	r17,r3
     f8c:	b5800204 	addi	r22,r22,8
           // if(mag2 == 0) printf("mag2 %d %d\n", j, i);
        if (i < numFFTPoints){
     f90:	00801004 	movi	r2,64
     f94:	15c00e16 	blt	r2,r23,fd0 <fft_mag_window+0x180>
          // Offset by j*offset
          output[i + j*numFFTPoints] = sqrt(mag2);
     f98:	8009883a 	mov	r4,r16
     f9c:	880b883a 	mov	r5,r17
     fa0:	00022f40 	call	22f4 <sqrt>
     fa4:	1009883a 	mov	r4,r2
     fa8:	180b883a 	mov	r5,r3
     fac:	bf05883a 	add	r2,r23,fp
     fb0:	100490fa 	slli	r2,r2,3
     fb4:	d8c10317 	ldw	r3,1036(sp)
     fb8:	10c5883a 	add	r2,r2,r3
     fbc:	11000015 	stw	r4,0(r2)
     fc0:	11400115 	stw	r5,4(r2)
     fc4:	b80490fa 	slli	r2,r23,3
     fc8:	10800204 	addi	r2,r2,8
     fcc:	d8ad883a 	add	r22,sp,r2
        } 
        norm += mag2; 
     fd0:	a009883a 	mov	r4,r20
     fd4:	a80b883a 	mov	r5,r21
     fd8:	800d883a 	mov	r6,r16
     fdc:	880f883a 	mov	r7,r17
     fe0:	00036280 	call	3628 <__adddf3>
     fe4:	100b883a 	mov	r5,r2
     fe8:	1029883a 	mov	r20,r2
     fec:	182b883a 	mov	r21,r3
  int offset = FFT_LEN / 2;
  for (j = 0; j < numFrames; j++)
  {
    kiss_fft (fft_cfg, samples_for_fft + j*offset, fft_output);
    double norm = 0;
    for (i = 0; i < FFT_LEN; i++)
     ff0:	bdc00044 	addi	r23,r23,1
     ff4:	00801fc4 	movi	r2,127
     ff8:	15ffc90e 	bge	r2,r23,f20 <fft_mag_window+0xd0>
          output[i + j*numFFTPoints] = sqrt(mag2);
        } 
        norm += mag2; 
      }
      // FFT is symmetric, so magnitudes of negative freqs will repeat
    norm = sqrt(norm);
     ffc:	2809883a 	mov	r4,r5
    1000:	180b883a 	mov	r5,r3
    1004:	00022f40 	call	22f4 <sqrt>
    1008:	1023883a 	mov	r17,r2
    100c:	1825883a 	mov	r18,r3
    1010:	dc010117 	ldw	r16,1028(sp)
    1014:	0029883a 	mov	r20,zero
    1018:	05401044 	movi	r21,65
    // Normalize
    for (i = 0; i < numFFTPoints; i++)
      {
        output[i + j*numFFTPoints] = output[i + j*numFFTPoints] / norm;
    101c:	81000017 	ldw	r4,0(r16)
    1020:	81400117 	ldw	r5,4(r16)
    1024:	880d883a 	mov	r6,r17
    1028:	900f883a 	mov	r7,r18
    102c:	0003a600 	call	3a60 <__divdf3>
    1030:	80800015 	stw	r2,0(r16)
    1034:	80c00115 	stw	r3,4(r16)
        norm += mag2; 
      }
      // FFT is symmetric, so magnitudes of negative freqs will repeat
    norm = sqrt(norm);
    // Normalize
    for (i = 0; i < numFFTPoints; i++)
    1038:	a5000044 	addi	r20,r20,1
    103c:	84000204 	addi	r16,r16,8
    1040:	a57ff61e 	bne	r20,r21,101c <fft_mag_window+0x1cc>
    1044:	d8810217 	ldw	r2,1032(sp)
    1048:	10808004 	addi	r2,r2,512
    104c:	d8810215 	stw	r2,1032(sp)
    1050:	d8c10117 	ldw	r3,1028(sp)
    1054:	18c08204 	addi	r3,r3,520
    1058:	d8c10115 	stw	r3,1028(sp)
    105c:	d8810017 	ldw	r2,1024(sp)
    1060:	1505883a 	add	r2,r2,r20
    1064:	d8810015 	stw	r2,1024(sp)
  double mag2;
  // Overlap by FFT_LEN / 2
  // Results in 2*NUM_SAMPLES / FFT_LEN - 1 overlapping frames
  // because we loose one at the end
  int offset = FFT_LEN / 2;
  for (j = 0; j < numFrames; j++)
    1068:	00bf8014 	movui	r2,65024
    106c:	d8c10217 	ldw	r3,1032(sp)
    1070:	18bf861e 	bne	r3,r2,e8c <fft_mag_window+0x3c>
      {
        output[i + j*numFFTPoints] = output[i + j*numFFTPoints] / norm;
        //printf("f:%lf\n", output[i + j*numFFTPoints]);
      }
  }
}
    1074:	dfc10d17 	ldw	ra,1076(sp)
    1078:	df010c17 	ldw	fp,1072(sp)
    107c:	ddc10b17 	ldw	r23,1068(sp)
    1080:	dd810a17 	ldw	r22,1064(sp)
    1084:	dd410917 	ldw	r21,1060(sp)
    1088:	dd010817 	ldw	r20,1056(sp)
    108c:	dcc10717 	ldw	r19,1052(sp)
    1090:	dc810617 	ldw	r18,1048(sp)
    1094:	dc410517 	ldw	r17,1044(sp)
    1098:	dc010417 	ldw	r16,1040(sp)
    109c:	dec10e04 	addi	sp,sp,1080
    10a0:	f800283a 	ret

000010a4 <fft>:
 * -------------
 * Perform a hardware FFT on the samples_for_fft array.
 * Also store historical FFT outputs in a ring buffer of length AVERAGING_LENGTH
 * so the animation is smoother.
 */
int fft (double* output) {
    10a4:	defef604 	addi	sp,sp,-1064
    10a8:	dfc10915 	stw	ra,1060(sp)
    10ac:	df010815 	stw	fp,1056(sp)
    10b0:	ddc10715 	stw	r23,1052(sp)
    10b4:	dd810615 	stw	r22,1048(sp)
    10b8:	dd410515 	stw	r21,1044(sp)
    10bc:	dd010415 	stw	r20,1040(sp)
    10c0:	dcc10315 	stw	r19,1036(sp)
    10c4:	dc810215 	stw	r18,1032(sp)
    10c8:	dc410115 	stw	r17,1028(sp)
    10cc:	dc010015 	stw	r16,1024(sp)
    10d0:	202f883a 	mov	r23,r4
    10d4:	0039883a 	mov	fp,zero
  int i, j;
  kiss_fft_cpx fft_output[FFT_LEN];
  for (j = 0; j < NUM_SAMPLES; j+= FFT_LEN)
  {
    kiss_fft (fft_cfg, samples_for_fft + j, fft_output);
    10d8:	d107fb17 	ldw	r4,8172(gp)
    10dc:	01400274 	movhi	r5,9
    10e0:	295d4504 	addi	r5,r5,29972
    10e4:	e14b883a 	add	r5,fp,r5
    10e8:	d80d883a 	mov	r6,sp
    10ec:	00004180 	call	418 <kiss_fft>
    10f0:	0029883a 	mov	r20,zero
    10f4:	002b883a 	mov	r21,zero
    10f8:	d82d883a 	mov	r22,sp
    double norm = 0;
    for (i = 0; i < FFT_LEN; i++)
      {
        norm += (double)fft_output[i].r*(double)fft_output[i].r + (double)fft_output[i].i*(double)fft_output[i].i;
    10fc:	b1000017 	ldw	r4,0(r22)
    1100:	0003f600 	call	3f60 <__floatsidf>
    1104:	1021883a 	mov	r16,r2
    1108:	1823883a 	mov	r17,r3
    110c:	b1000117 	ldw	r4,4(r22)
    1110:	0003f600 	call	3f60 <__floatsidf>
    1114:	1025883a 	mov	r18,r2
    1118:	1827883a 	mov	r19,r3
    111c:	8009883a 	mov	r4,r16
    1120:	880b883a 	mov	r5,r17
    1124:	800d883a 	mov	r6,r16
    1128:	880f883a 	mov	r7,r17
    112c:	000369c0 	call	369c <__muldf3>
    1130:	1021883a 	mov	r16,r2
    1134:	1823883a 	mov	r17,r3
    1138:	9009883a 	mov	r4,r18
    113c:	980b883a 	mov	r5,r19
    1140:	900d883a 	mov	r6,r18
    1144:	980f883a 	mov	r7,r19
    1148:	000369c0 	call	369c <__muldf3>
    114c:	8009883a 	mov	r4,r16
    1150:	880b883a 	mov	r5,r17
    1154:	100d883a 	mov	r6,r2
    1158:	180f883a 	mov	r7,r3
    115c:	00036280 	call	3628 <__adddf3>
    1160:	a009883a 	mov	r4,r20
    1164:	a80b883a 	mov	r5,r21
    1168:	100d883a 	mov	r6,r2
    116c:	180f883a 	mov	r7,r3
    1170:	00036280 	call	3628 <__adddf3>
    1174:	100b883a 	mov	r5,r2
    1178:	1029883a 	mov	r20,r2
    117c:	182b883a 	mov	r21,r3
    1180:	b5800204 	addi	r22,r22,8
  kiss_fft_cpx fft_output[FFT_LEN];
  for (j = 0; j < NUM_SAMPLES; j+= FFT_LEN)
  {
    kiss_fft (fft_cfg, samples_for_fft + j, fft_output);
    double norm = 0;
    for (i = 0; i < FFT_LEN; i++)
    1184:	d8810004 	addi	r2,sp,1024
    1188:	b0bfdc1e 	bne	r22,r2,10fc <fft+0x58>
      {
        norm += (double)fft_output[i].r*(double)fft_output[i].r + (double)fft_output[i].i*(double)fft_output[i].i;
      }
    norm = sqrt(norm);
    118c:	2809883a 	mov	r4,r5
    1190:	180b883a 	mov	r5,r3
    1194:	00022f40 	call	22f4 <sqrt>
    1198:	1029883a 	mov	r20,r2
    119c:	182b883a 	mov	r21,r3
    11a0:	b825883a 	mov	r18,r23
    11a4:	0023883a 	mov	r17,zero

    for (i = 0; i < FFT_LEN*2; i+=2)
      {
        output[i + 2*j] = (double)fft_output[i/2].r / norm;
    11a8:	8820d7fa 	srli	r16,r17,31
    11ac:	8461883a 	add	r16,r16,r17
    11b0:	8021d07a 	srai	r16,r16,1
    11b4:	802090fa 	slli	r16,r16,3
    11b8:	86e1883a 	add	r16,r16,sp
    11bc:	81000017 	ldw	r4,0(r16)
    11c0:	0003f600 	call	3f60 <__floatsidf>
    11c4:	1009883a 	mov	r4,r2
    11c8:	180b883a 	mov	r5,r3
    11cc:	a00d883a 	mov	r6,r20
    11d0:	a80f883a 	mov	r7,r21
    11d4:	0003a600 	call	3a60 <__divdf3>
    11d8:	90800015 	stw	r2,0(r18)
    11dc:	90c00115 	stw	r3,4(r18)
        output[i + 2*j + 1] = (double)fft_output[i/2].i / norm;
    11e0:	81000117 	ldw	r4,4(r16)
    11e4:	0003f600 	call	3f60 <__floatsidf>
    11e8:	1009883a 	mov	r4,r2
    11ec:	180b883a 	mov	r5,r3
    11f0:	a00d883a 	mov	r6,r20
    11f4:	a80f883a 	mov	r7,r21
    11f8:	0003a600 	call	3a60 <__divdf3>
    11fc:	90800215 	stw	r2,8(r18)
    1200:	90c00315 	stw	r3,12(r18)
      {
        norm += (double)fft_output[i].r*(double)fft_output[i].r + (double)fft_output[i].i*(double)fft_output[i].i;
      }
    norm = sqrt(norm);

    for (i = 0; i < FFT_LEN*2; i+=2)
    1204:	8c400084 	addi	r17,r17,2
    1208:	94800404 	addi	r18,r18,16
    120c:	00804004 	movi	r2,256
    1210:	88bfe51e 	bne	r17,r2,11a8 <fft+0x104>
    1214:	e7010004 	addi	fp,fp,1024
    1218:	bdc20004 	addi	r23,r23,2048
 * so the animation is smoother.
 */
int fft (double* output) {
  int i, j;
  kiss_fft_cpx fft_output[FFT_LEN];
  for (j = 0; j < NUM_SAMPLES; j+= FFT_LEN)
    121c:	00800074 	movhi	r2,1
    1220:	e0bfad1e 	bne	fp,r2,10d8 <fft+0x34>
        output[i + 2*j] = (double)fft_output[i/2].r / norm;
        output[i + 2*j + 1] = (double)fft_output[i/2].i / norm;
      }
  }
  return 0;
}
    1224:	0005883a 	mov	r2,zero
    1228:	dfc10917 	ldw	ra,1060(sp)
    122c:	df010817 	ldw	fp,1056(sp)
    1230:	ddc10717 	ldw	r23,1052(sp)
    1234:	dd810617 	ldw	r22,1048(sp)
    1238:	dd410517 	ldw	r21,1044(sp)
    123c:	dd010417 	ldw	r20,1040(sp)
    1240:	dcc10317 	ldw	r19,1036(sp)
    1244:	dc810217 	ldw	r18,1032(sp)
    1248:	dc410117 	ldw	r17,1028(sp)
    124c:	dc010017 	ldw	r16,1024(sp)
    1250:	dec10a04 	addi	sp,sp,1064
    1254:	f800283a 	ret

00001258 <printMFCC>:
    return 1;
  }
  return 0;
}

void printMFCC(double r) {
    1258:	defff804 	addi	sp,sp,-32
    125c:	dfc00715 	stw	ra,28(sp)
    1260:	dc000615 	stw	r16,24(sp)
    1264:	200f883a 	mov	r7,r4
  char buf[20];
  snprintf(buf, 20, "%.6lf,", r);
    1268:	d9400015 	stw	r5,0(sp)
    126c:	d9000104 	addi	r4,sp,4
    1270:	01400504 	movi	r5,20
    1274:	01800074 	movhi	r6,1
    1278:	31bdcb04 	addi	r6,r6,-2260
    127c:	00050980 	call	5098 <snprintf>
    1280:	0021883a 	mov	r16,zero
    1284:	00000706 	br	12a4 <printMFCC+0x4c>
  size_t j;
  for (j = 0; j < strlen(buf); j++) {
    while(put_char(buf[j]));
    1288:	d8c00104 	addi	r3,sp,4
    128c:	1c05883a 	add	r2,r3,r16
    1290:	11000007 	ldb	r4,0(r2)
    1294:	0000c340 	call	c34 <put_char>
    1298:	10803fcc 	andi	r2,r2,255
    129c:	103ffa1e 	bne	r2,zero,1288 <printMFCC+0x30>

void printMFCC(double r) {
  char buf[20];
  snprintf(buf, 20, "%.6lf,", r);
  size_t j;
  for (j = 0; j < strlen(buf); j++) {
    12a0:	84000044 	addi	r16,r16,1
    12a4:	d9000104 	addi	r4,sp,4
    12a8:	00052080 	call	5208 <strlen>
    12ac:	80bff636 	bltu	r16,r2,1288 <printMFCC+0x30>
    while(put_char(buf[j]));
  }
}
    12b0:	dfc00717 	ldw	ra,28(sp)
    12b4:	dc000617 	ldw	r16,24(sp)
    12b8:	dec00804 	addi	sp,sp,32
    12bc:	f800283a 	ret

000012c0 <clearLCDChar>:
  audio_init (audio_isr);
  pushbuttons_enable_interrupts (pushbuttons_isr);
  pushbuttons_set_interrupt_mask (BUTTON2|BUTTON1);
}

static void clearLCDChar() {
    12c0:	defffd04 	addi	sp,sp,-12
    12c4:	dfc00215 	stw	ra,8(sp)
    12c8:	dc400115 	stw	r17,4(sp)
    12cc:	dc000015 	stw	r16,0(sp)
  char_lcd_move_cursor(0,0);
    12d0:	0009883a 	mov	r4,zero
    12d4:	000b883a 	mov	r5,zero
    12d8:	000067c0 	call	67c <char_lcd_move_cursor>
    12dc:	0023883a 	mov	r17,zero
    12e0:	00001306 	br	1330 <clearLCDChar+0x70>
    for (j = 0; j < LCD_CHAR_DISPLAY_SIZE_Y; j++) {
      char_lcd_write(" ");
      char_lcd_move_cursor(i, j);
    }
  }
  char_lcd_cursor_off();
    12e4:	00006d00 	call	6d0 <char_lcd_cursor_off>
}
    12e8:	dfc00217 	ldw	ra,8(sp)
    12ec:	dc400117 	ldw	r17,4(sp)
    12f0:	dc000017 	ldw	r16,0(sp)
    12f4:	dec00304 	addi	sp,sp,12
    12f8:	f800283a 	ret
  char_lcd_move_cursor(0,0);
  int i;
  for (i = 0; i < LCD_CHAR_DISPLAY_SIZE_X; i++) {
    int j;
    for (j = 0; j < LCD_CHAR_DISPLAY_SIZE_Y; j++) {
      char_lcd_write(" ");
    12fc:	01000074 	movhi	r4,1
    1300:	213dcd04 	addi	r4,r4,-2252
    1304:	00006a80 	call	6a8 <char_lcd_write>
      char_lcd_move_cursor(i, j);
    1308:	8809883a 	mov	r4,r17
    130c:	800b883a 	mov	r5,r16
    1310:	000067c0 	call	67c <char_lcd_move_cursor>
static void clearLCDChar() {
  char_lcd_move_cursor(0,0);
  int i;
  for (i = 0; i < LCD_CHAR_DISPLAY_SIZE_X; i++) {
    int j;
    for (j = 0; j < LCD_CHAR_DISPLAY_SIZE_Y; j++) {
    1314:	00c00044 	movi	r3,1
    1318:	80e1883a 	add	r16,r16,r3
    131c:	00800084 	movi	r2,2
    1320:	80bff61e 	bne	r16,r2,12fc <clearLCDChar+0x3c>
}

static void clearLCDChar() {
  char_lcd_move_cursor(0,0);
  int i;
  for (i = 0; i < LCD_CHAR_DISPLAY_SIZE_X; i++) {
    1324:	88e3883a 	add	r17,r17,r3
    1328:	00800404 	movi	r2,16
    132c:	88bfed26 	beq	r17,r2,12e4 <clearLCDChar+0x24>
      char_lcd_write(" ");
      char_lcd_move_cursor(i, j);
    }
  }
  char_lcd_cursor_off();
}
    1330:	0021883a 	mov	r16,zero
    1334:	003ff106 	br	12fc <clearLCDChar+0x3c>

00001338 <mfcc>:
  audio_ready = true;
}


// MFCC Finder
static void mfcc(double* frames, double* output) {
    1338:	deebf004 	addi	sp,sp,-20544
    133c:	dfd40f15 	stw	ra,20540(sp)
    1340:	df140e15 	stw	fp,20536(sp)
    1344:	ddd40d15 	stw	r23,20532(sp)
    1348:	dd940c15 	stw	r22,20528(sp)
    134c:	dd540b15 	stw	r21,20524(sp)
    1350:	dd140a15 	stw	r20,20520(sp)
    1354:	dcd40915 	stw	r19,20516(sp)
    1358:	dc940815 	stw	r18,20512(sp)
    135c:	dc540715 	stw	r17,20508(sp)
    1360:	dc140615 	stw	r16,20504(sp)
    1364:	d9140515 	stw	r4,20500(sp)
    1368:	d953da15 	stw	r5,20328(sp)
    136c:	d813d915 	stw	zero,20324(sp)
    1370:	d813d815 	stw	zero,20320(sp)
    1374:	0001db06 	br	1ae4 <mfcc+0x7ac>
  // Apply triangle filter bank and take log
  for (m = 0; m < numFrames; m++) {
    for (i = 0; i < NUM_BANKS; i++) {
      sum = 0;
      //use LUT to skip zeros
      start = tribankStart[i];
    1378:	d893db17 	ldw	r2,20332(sp)
    137c:	15400017 	ldw	r21,0(r2)
      end = tribankEnd[i];
    1380:	e5800017 	ldw	r22,0(fp)
      for (j = start; j < end; j++) {
    1384:	ad81e20e 	bge	r21,r22,1b10 <mfcc+0x7d8>
    1388:	b8801064 	muli	r2,r23,65
    138c:	1545883a 	add	r2,r2,r21
    1390:	1085883a 	add	r2,r2,r2
    1394:	1085883a 	add	r2,r2,r2
    1398:	00c00074 	movhi	r3,1
    139c:	18d9fb04 	addi	r3,r3,26604
    13a0:	10e7883a 	add	r19,r2,r3
    13a4:	d8d40417 	ldw	r3,20496(sp)
    13a8:	a8c5883a 	add	r2,r21,r3
    13ac:	100490fa 	slli	r2,r2,3
    13b0:	d9140517 	ldw	r4,20500(sp)
    13b4:	20a5883a 	add	r18,r4,r2
    13b8:	0021883a 	mov	r16,zero
    13bc:	0023883a 	mov	r17,zero
    13c0:	0029883a 	mov	r20,zero
        sum += TRIBANK[i][j]*frames[j + m*numFFTPoints];
    13c4:	99000017 	ldw	r4,0(r19)
    13c8:	00031440 	call	3144 <__extendsfdf2>
    13cc:	1009883a 	mov	r4,r2
    13d0:	180b883a 	mov	r5,r3
    13d4:	91800017 	ldw	r6,0(r18)
    13d8:	91c00117 	ldw	r7,4(r18)
    13dc:	000369c0 	call	369c <__muldf3>
    13e0:	8009883a 	mov	r4,r16
    13e4:	880b883a 	mov	r5,r17
    13e8:	100d883a 	mov	r6,r2
    13ec:	180f883a 	mov	r7,r3
    13f0:	00036280 	call	3628 <__adddf3>
    13f4:	1011883a 	mov	r8,r2
    13f8:	1021883a 	mov	r16,r2
    13fc:	1823883a 	mov	r17,r3
    1400:	a5000044 	addi	r20,r20,1
    1404:	9cc00104 	addi	r19,r19,4
    1408:	94800204 	addi	r18,r18,8
    for (i = 0; i < NUM_BANKS; i++) {
      sum = 0;
      //use LUT to skip zeros
      start = tribankStart[i];
      end = tribankEnd[i];
      for (j = start; j < end; j++) {
    140c:	b545c83a 	sub	r2,r22,r21
    1410:	a0bfec1e 	bne	r20,r2,13c4 <mfcc+0x8c>
    1414:	d893d917 	ldw	r2,20324(sp)
    1418:	b8a5883a 	add	r18,r23,r2
        sum += TRIBANK[i][j]*frames[j + m*numFFTPoints];
        //if(m == 0 && (frames[j + m*numFFTPoints] == 0)) printf(" %lf\n", sum);
      }
      FBE[i + m*NUM_BANKS] = (sum <= 0) ? -100000 : log10(sum);
    141c:	000d883a 	mov	r6,zero
    1420:	000f883a 	mov	r7,zero
    1424:	4009883a 	mov	r4,r8
    1428:	180b883a 	mov	r5,r3
    142c:	0003ed80 	call	3ed8 <__ledf2>
    1430:	00800416 	blt	zero,r2,1444 <mfcc+0x10c>
    1434:	0009883a 	mov	r4,zero
    1438:	01703e34 	movhi	r5,49400
    143c:	295a8004 	addi	r5,r5,27136
    1440:	00000506 	br	1458 <mfcc+0x120>
    1444:	8009883a 	mov	r4,r16
    1448:	880b883a 	mov	r5,r17
    144c:	000216c0 	call	216c <log10>
    1450:	1009883a 	mov	r4,r2
    1454:	180b883a 	mov	r5,r3
    1458:	900490fa 	slli	r2,r18,3
    145c:	16c5883a 	add	r2,r2,sp
    1460:	11000015 	stw	r4,0(r2)
    1464:	11400115 	stw	r5,4(r2)
  // Filter bank energies
  double FBE[numFrames*NUM_BANKS];
  double sum;
  // Apply triangle filter bank and take log
  for (m = 0; m < numFrames; m++) {
    for (i = 0; i < NUM_BANKS; i++) {
    1468:	bdc00044 	addi	r23,r23,1
    146c:	00800104 	movi	r2,4
    1470:	d8d3db17 	ldw	r3,20332(sp)
    1474:	1887883a 	add	r3,r3,r2
    1478:	d8d3db15 	stw	r3,20332(sp)
    147c:	e0b9883a 	add	fp,fp,r2
    1480:	00800504 	movi	r2,20
    1484:	b8bfbc1e 	bne	r23,r2,1378 <mfcc+0x40>
    for (i = 0; i < NUM_CC; i++) {
      sum = 0;
      //loop unrolled
      //for (j = 0; j < NUM_BANKS; j++) {
        //sum += DCT_LIFTER[i][j]*FBE[j + m*NUM_BANKS];
        sum += DCT_LIFTER[i][0]*FBE[0 + m*NUM_BANKS];
    1488:	d9140317 	ldw	r4,20492(sp)
    148c:	200490fa 	slli	r2,r4,3
    1490:	16c5883a 	add	r2,r2,sp
    1494:	10c00017 	ldw	r3,0(r2)
    1498:	d8d40115 	stw	r3,20484(sp)
    149c:	11000117 	ldw	r4,4(r2)
    14a0:	d9140215 	stw	r4,20488(sp)
        sum += DCT_LIFTER[i][1]*FBE[1 + m*NUM_BANKS];
    14a4:	10c00204 	addi	r3,r2,8
    14a8:	19000017 	ldw	r4,0(r3)
    14ac:	d913ff15 	stw	r4,20476(sp)
    14b0:	18c00117 	ldw	r3,4(r3)
    14b4:	d8d40015 	stw	r3,20480(sp)
        sum += DCT_LIFTER[i][2]*FBE[2 + m*NUM_BANKS];
    14b8:	10c00404 	addi	r3,r2,16
    14bc:	19000017 	ldw	r4,0(r3)
    14c0:	d913fd15 	stw	r4,20468(sp)
    14c4:	18c00117 	ldw	r3,4(r3)
    14c8:	d8d3fe15 	stw	r3,20472(sp)
        sum += DCT_LIFTER[i][3]*FBE[3 + m*NUM_BANKS];
    14cc:	10c00604 	addi	r3,r2,24
    14d0:	19000017 	ldw	r4,0(r3)
    14d4:	d913fb15 	stw	r4,20460(sp)
    14d8:	18c00117 	ldw	r3,4(r3)
    14dc:	d8d3fc15 	stw	r3,20464(sp)
        sum += DCT_LIFTER[i][4]*FBE[4 + m*NUM_BANKS];
    14e0:	10c00804 	addi	r3,r2,32
    14e4:	19000017 	ldw	r4,0(r3)
    14e8:	d913f915 	stw	r4,20452(sp)
    14ec:	18c00117 	ldw	r3,4(r3)
    14f0:	d8d3fa15 	stw	r3,20456(sp)
        sum += DCT_LIFTER[i][5]*FBE[5 + m*NUM_BANKS];
    14f4:	10c00a04 	addi	r3,r2,40
    14f8:	19000017 	ldw	r4,0(r3)
    14fc:	d913f715 	stw	r4,20444(sp)
    1500:	18c00117 	ldw	r3,4(r3)
    1504:	d8d3f815 	stw	r3,20448(sp)
        sum += DCT_LIFTER[i][6]*FBE[6 + m*NUM_BANKS];
    1508:	10c00c04 	addi	r3,r2,48
    150c:	19000017 	ldw	r4,0(r3)
    1510:	d913f515 	stw	r4,20436(sp)
    1514:	18c00117 	ldw	r3,4(r3)
    1518:	d8d3f615 	stw	r3,20440(sp)
        sum += DCT_LIFTER[i][7]*FBE[7 + m*NUM_BANKS];
    151c:	10c00e04 	addi	r3,r2,56
    1520:	19000017 	ldw	r4,0(r3)
    1524:	d913f315 	stw	r4,20428(sp)
    1528:	18c00117 	ldw	r3,4(r3)
    152c:	d8d3f415 	stw	r3,20432(sp)
        sum += DCT_LIFTER[i][8]*FBE[8 + m*NUM_BANKS];
    1530:	10c01004 	addi	r3,r2,64
    1534:	19000017 	ldw	r4,0(r3)
    1538:	d913f115 	stw	r4,20420(sp)
    153c:	18c00117 	ldw	r3,4(r3)
    1540:	d8d3f215 	stw	r3,20424(sp)
        sum += DCT_LIFTER[i][9]*FBE[9 + m*NUM_BANKS];
    1544:	10c01204 	addi	r3,r2,72
    1548:	19000017 	ldw	r4,0(r3)
    154c:	d913ef15 	stw	r4,20412(sp)
    1550:	18c00117 	ldw	r3,4(r3)
    1554:	d8d3f015 	stw	r3,20416(sp)
        sum += DCT_LIFTER[i][10]*FBE[10 + m*NUM_BANKS];
    1558:	10c01404 	addi	r3,r2,80
    155c:	19000017 	ldw	r4,0(r3)
    1560:	d913ed15 	stw	r4,20404(sp)
    1564:	18c00117 	ldw	r3,4(r3)
    1568:	d8d3ee15 	stw	r3,20408(sp)
        sum += DCT_LIFTER[i][11]*FBE[11 + m*NUM_BANKS];
    156c:	10c01604 	addi	r3,r2,88
    1570:	19000017 	ldw	r4,0(r3)
    1574:	d913eb15 	stw	r4,20396(sp)
    1578:	18c00117 	ldw	r3,4(r3)
    157c:	d8d3ec15 	stw	r3,20400(sp)
        sum += DCT_LIFTER[i][12]*FBE[12 + m*NUM_BANKS];
    1580:	10c01804 	addi	r3,r2,96
    1584:	19000017 	ldw	r4,0(r3)
    1588:	d913e915 	stw	r4,20388(sp)
    158c:	18c00117 	ldw	r3,4(r3)
    1590:	d8d3ea15 	stw	r3,20392(sp)
        sum += DCT_LIFTER[i][13]*FBE[13 + m*NUM_BANKS];
    1594:	10c01a04 	addi	r3,r2,104
    1598:	19000017 	ldw	r4,0(r3)
    159c:	d913e715 	stw	r4,20380(sp)
    15a0:	18c00117 	ldw	r3,4(r3)
    15a4:	d8d3e815 	stw	r3,20384(sp)
        sum += DCT_LIFTER[i][14]*FBE[14 + m*NUM_BANKS];
    15a8:	10c01c04 	addi	r3,r2,112
    15ac:	19000017 	ldw	r4,0(r3)
    15b0:	d913e515 	stw	r4,20372(sp)
    15b4:	18c00117 	ldw	r3,4(r3)
    15b8:	d8d3e615 	stw	r3,20376(sp)
        sum += DCT_LIFTER[i][15]*FBE[15 + m*NUM_BANKS];
    15bc:	10c01e04 	addi	r3,r2,120
    15c0:	19000017 	ldw	r4,0(r3)
    15c4:	d913e315 	stw	r4,20364(sp)
    15c8:	18c00117 	ldw	r3,4(r3)
    15cc:	d8d3e415 	stw	r3,20368(sp)
        sum += DCT_LIFTER[i][16]*FBE[16 + m*NUM_BANKS];
    15d0:	10c02004 	addi	r3,r2,128
    15d4:	19000017 	ldw	r4,0(r3)
    15d8:	d913e115 	stw	r4,20356(sp)
    15dc:	18c00117 	ldw	r3,4(r3)
    15e0:	d8d3e215 	stw	r3,20360(sp)
        sum += DCT_LIFTER[i][17]*FBE[17 + m*NUM_BANKS];
    15e4:	10c02204 	addi	r3,r2,136
    15e8:	19000017 	ldw	r4,0(r3)
    15ec:	d913df15 	stw	r4,20348(sp)
    15f0:	18c00117 	ldw	r3,4(r3)
    15f4:	d8d3e015 	stw	r3,20352(sp)
        sum += DCT_LIFTER[i][18]*FBE[18 + m*NUM_BANKS];
    15f8:	10c02404 	addi	r3,r2,144
    15fc:	19000017 	ldw	r4,0(r3)
    1600:	d913dd15 	stw	r4,20340(sp)
    1604:	18c00117 	ldw	r3,4(r3)
    1608:	d8d3de15 	stw	r3,20344(sp)
        sum += DCT_LIFTER[i][19]*FBE[19 + m*NUM_BANKS];
    160c:	10802604 	addi	r2,r2,152
    1610:	15400017 	ldw	r21,0(r2)
    1614:	15800117 	ldw	r22,4(r2)
    1618:	05000074 	movhi	r20,1
    161c:	a518f704 	addi	r20,r20,25564
    1620:	ddd3da17 	ldw	r23,20328(sp)
    1624:	d813dc15 	stw	zero,20336(sp)
    1628:	a039883a 	mov	fp,r20
    for (i = 0; i < NUM_CC; i++) {
      sum = 0;
      //loop unrolled
      //for (j = 0; j < NUM_BANKS; j++) {
        //sum += DCT_LIFTER[i][j]*FBE[j + m*NUM_BANKS];
        sum += DCT_LIFTER[i][0]*FBE[0 + m*NUM_BANKS];
    162c:	e1000017 	ldw	r4,0(fp)
    1630:	00031440 	call	3144 <__extendsfdf2>
    1634:	1009883a 	mov	r4,r2
    1638:	180b883a 	mov	r5,r3
    163c:	d9940117 	ldw	r6,20484(sp)
    1640:	d9d40217 	ldw	r7,20488(sp)
    1644:	000369c0 	call	369c <__muldf3>
    1648:	000d883a 	mov	r6,zero
    164c:	000f883a 	mov	r7,zero
    1650:	1009883a 	mov	r4,r2
    1654:	180b883a 	mov	r5,r3
    1658:	00036280 	call	3628 <__adddf3>
    165c:	1021883a 	mov	r16,r2
    1660:	1823883a 	mov	r17,r3
        sum += DCT_LIFTER[i][1]*FBE[1 + m*NUM_BANKS];
    1664:	a1000117 	ldw	r4,4(r20)
    1668:	00031440 	call	3144 <__extendsfdf2>
    166c:	1009883a 	mov	r4,r2
    1670:	180b883a 	mov	r5,r3
    1674:	d993ff17 	ldw	r6,20476(sp)
    1678:	d9d40017 	ldw	r7,20480(sp)
    167c:	000369c0 	call	369c <__muldf3>
    1680:	8009883a 	mov	r4,r16
    1684:	880b883a 	mov	r5,r17
    1688:	100d883a 	mov	r6,r2
    168c:	180f883a 	mov	r7,r3
    1690:	00036280 	call	3628 <__adddf3>
    1694:	1021883a 	mov	r16,r2
    1698:	1823883a 	mov	r17,r3
        sum += DCT_LIFTER[i][2]*FBE[2 + m*NUM_BANKS];
    169c:	a1000217 	ldw	r4,8(r20)
    16a0:	00031440 	call	3144 <__extendsfdf2>
    16a4:	1009883a 	mov	r4,r2
    16a8:	180b883a 	mov	r5,r3
    16ac:	d993fd17 	ldw	r6,20468(sp)
    16b0:	d9d3fe17 	ldw	r7,20472(sp)
    16b4:	000369c0 	call	369c <__muldf3>
    16b8:	8009883a 	mov	r4,r16
    16bc:	880b883a 	mov	r5,r17
    16c0:	100d883a 	mov	r6,r2
    16c4:	180f883a 	mov	r7,r3
    16c8:	00036280 	call	3628 <__adddf3>
    16cc:	1021883a 	mov	r16,r2
    16d0:	1823883a 	mov	r17,r3
        sum += DCT_LIFTER[i][3]*FBE[3 + m*NUM_BANKS];
    16d4:	a1000317 	ldw	r4,12(r20)
    16d8:	00031440 	call	3144 <__extendsfdf2>
    16dc:	1009883a 	mov	r4,r2
    16e0:	180b883a 	mov	r5,r3
    16e4:	d993fb17 	ldw	r6,20460(sp)
    16e8:	d9d3fc17 	ldw	r7,20464(sp)
    16ec:	000369c0 	call	369c <__muldf3>
    16f0:	8009883a 	mov	r4,r16
    16f4:	880b883a 	mov	r5,r17
    16f8:	100d883a 	mov	r6,r2
    16fc:	180f883a 	mov	r7,r3
    1700:	00036280 	call	3628 <__adddf3>
    1704:	1021883a 	mov	r16,r2
    1708:	1823883a 	mov	r17,r3
        sum += DCT_LIFTER[i][4]*FBE[4 + m*NUM_BANKS];
    170c:	a1000417 	ldw	r4,16(r20)
    1710:	00031440 	call	3144 <__extendsfdf2>
    1714:	1009883a 	mov	r4,r2
    1718:	180b883a 	mov	r5,r3
    171c:	d993f917 	ldw	r6,20452(sp)
    1720:	d9d3fa17 	ldw	r7,20456(sp)
    1724:	000369c0 	call	369c <__muldf3>
    1728:	8009883a 	mov	r4,r16
    172c:	880b883a 	mov	r5,r17
    1730:	100d883a 	mov	r6,r2
    1734:	180f883a 	mov	r7,r3
    1738:	00036280 	call	3628 <__adddf3>
    173c:	1021883a 	mov	r16,r2
    1740:	1823883a 	mov	r17,r3
        sum += DCT_LIFTER[i][5]*FBE[5 + m*NUM_BANKS];
    1744:	a1000517 	ldw	r4,20(r20)
    1748:	00031440 	call	3144 <__extendsfdf2>
    174c:	1009883a 	mov	r4,r2
    1750:	180b883a 	mov	r5,r3
    1754:	d993f717 	ldw	r6,20444(sp)
    1758:	d9d3f817 	ldw	r7,20448(sp)
    175c:	000369c0 	call	369c <__muldf3>
    1760:	8009883a 	mov	r4,r16
    1764:	880b883a 	mov	r5,r17
    1768:	100d883a 	mov	r6,r2
    176c:	180f883a 	mov	r7,r3
    1770:	00036280 	call	3628 <__adddf3>
    1774:	1021883a 	mov	r16,r2
    1778:	1823883a 	mov	r17,r3
        sum += DCT_LIFTER[i][6]*FBE[6 + m*NUM_BANKS];
    177c:	a1000617 	ldw	r4,24(r20)
    1780:	00031440 	call	3144 <__extendsfdf2>
    1784:	1009883a 	mov	r4,r2
    1788:	180b883a 	mov	r5,r3
    178c:	d993f517 	ldw	r6,20436(sp)
    1790:	d9d3f617 	ldw	r7,20440(sp)
    1794:	000369c0 	call	369c <__muldf3>
    1798:	8009883a 	mov	r4,r16
    179c:	880b883a 	mov	r5,r17
    17a0:	100d883a 	mov	r6,r2
    17a4:	180f883a 	mov	r7,r3
    17a8:	00036280 	call	3628 <__adddf3>
    17ac:	1021883a 	mov	r16,r2
    17b0:	1823883a 	mov	r17,r3
        sum += DCT_LIFTER[i][7]*FBE[7 + m*NUM_BANKS];
    17b4:	a1000717 	ldw	r4,28(r20)
    17b8:	00031440 	call	3144 <__extendsfdf2>
    17bc:	1009883a 	mov	r4,r2
    17c0:	180b883a 	mov	r5,r3
    17c4:	d993f317 	ldw	r6,20428(sp)
    17c8:	d9d3f417 	ldw	r7,20432(sp)
    17cc:	000369c0 	call	369c <__muldf3>
    17d0:	8009883a 	mov	r4,r16
    17d4:	880b883a 	mov	r5,r17
    17d8:	100d883a 	mov	r6,r2
    17dc:	180f883a 	mov	r7,r3
    17e0:	00036280 	call	3628 <__adddf3>
    17e4:	1021883a 	mov	r16,r2
    17e8:	1823883a 	mov	r17,r3
        sum += DCT_LIFTER[i][8]*FBE[8 + m*NUM_BANKS];
    17ec:	a1000817 	ldw	r4,32(r20)
    17f0:	00031440 	call	3144 <__extendsfdf2>
    17f4:	1009883a 	mov	r4,r2
    17f8:	180b883a 	mov	r5,r3
    17fc:	d993f117 	ldw	r6,20420(sp)
    1800:	d9d3f217 	ldw	r7,20424(sp)
    1804:	000369c0 	call	369c <__muldf3>
    1808:	8009883a 	mov	r4,r16
    180c:	880b883a 	mov	r5,r17
    1810:	100d883a 	mov	r6,r2
    1814:	180f883a 	mov	r7,r3
    1818:	00036280 	call	3628 <__adddf3>
    181c:	1021883a 	mov	r16,r2
    1820:	1823883a 	mov	r17,r3
        sum += DCT_LIFTER[i][9]*FBE[9 + m*NUM_BANKS];
    1824:	a1000917 	ldw	r4,36(r20)
    1828:	00031440 	call	3144 <__extendsfdf2>
    182c:	1009883a 	mov	r4,r2
    1830:	180b883a 	mov	r5,r3
    1834:	d993ef17 	ldw	r6,20412(sp)
    1838:	d9d3f017 	ldw	r7,20416(sp)
    183c:	000369c0 	call	369c <__muldf3>
    1840:	8009883a 	mov	r4,r16
    1844:	880b883a 	mov	r5,r17
    1848:	100d883a 	mov	r6,r2
    184c:	180f883a 	mov	r7,r3
    1850:	00036280 	call	3628 <__adddf3>
    1854:	1021883a 	mov	r16,r2
    1858:	1823883a 	mov	r17,r3
        sum += DCT_LIFTER[i][10]*FBE[10 + m*NUM_BANKS];
    185c:	a1000a17 	ldw	r4,40(r20)
    1860:	00031440 	call	3144 <__extendsfdf2>
    1864:	1009883a 	mov	r4,r2
    1868:	180b883a 	mov	r5,r3
    186c:	d993ed17 	ldw	r6,20404(sp)
    1870:	d9d3ee17 	ldw	r7,20408(sp)
    1874:	000369c0 	call	369c <__muldf3>
    1878:	8009883a 	mov	r4,r16
    187c:	880b883a 	mov	r5,r17
    1880:	100d883a 	mov	r6,r2
    1884:	180f883a 	mov	r7,r3
    1888:	00036280 	call	3628 <__adddf3>
    188c:	1021883a 	mov	r16,r2
    1890:	1823883a 	mov	r17,r3
        sum += DCT_LIFTER[i][11]*FBE[11 + m*NUM_BANKS];
    1894:	a1000b17 	ldw	r4,44(r20)
    1898:	00031440 	call	3144 <__extendsfdf2>
    189c:	1009883a 	mov	r4,r2
    18a0:	180b883a 	mov	r5,r3
    18a4:	d993eb17 	ldw	r6,20396(sp)
    18a8:	d9d3ec17 	ldw	r7,20400(sp)
    18ac:	000369c0 	call	369c <__muldf3>
    18b0:	8009883a 	mov	r4,r16
    18b4:	880b883a 	mov	r5,r17
    18b8:	100d883a 	mov	r6,r2
    18bc:	180f883a 	mov	r7,r3
    18c0:	00036280 	call	3628 <__adddf3>
    18c4:	1021883a 	mov	r16,r2
    18c8:	1823883a 	mov	r17,r3
        sum += DCT_LIFTER[i][12]*FBE[12 + m*NUM_BANKS];
    18cc:	a1000c17 	ldw	r4,48(r20)
    18d0:	00031440 	call	3144 <__extendsfdf2>
    18d4:	1009883a 	mov	r4,r2
    18d8:	180b883a 	mov	r5,r3
    18dc:	d993e917 	ldw	r6,20388(sp)
    18e0:	d9d3ea17 	ldw	r7,20392(sp)
    18e4:	000369c0 	call	369c <__muldf3>
    18e8:	8009883a 	mov	r4,r16
    18ec:	880b883a 	mov	r5,r17
    18f0:	100d883a 	mov	r6,r2
    18f4:	180f883a 	mov	r7,r3
    18f8:	00036280 	call	3628 <__adddf3>
    18fc:	1021883a 	mov	r16,r2
    1900:	1823883a 	mov	r17,r3
        sum += DCT_LIFTER[i][13]*FBE[13 + m*NUM_BANKS];
    1904:	a1000d17 	ldw	r4,52(r20)
    1908:	00031440 	call	3144 <__extendsfdf2>
    190c:	1009883a 	mov	r4,r2
    1910:	180b883a 	mov	r5,r3
    1914:	d993e717 	ldw	r6,20380(sp)
    1918:	d9d3e817 	ldw	r7,20384(sp)
    191c:	000369c0 	call	369c <__muldf3>
    1920:	8009883a 	mov	r4,r16
    1924:	880b883a 	mov	r5,r17
    1928:	100d883a 	mov	r6,r2
    192c:	180f883a 	mov	r7,r3
    1930:	00036280 	call	3628 <__adddf3>
    1934:	1021883a 	mov	r16,r2
    1938:	1823883a 	mov	r17,r3
        sum += DCT_LIFTER[i][14]*FBE[14 + m*NUM_BANKS];
    193c:	a1000e17 	ldw	r4,56(r20)
    1940:	00031440 	call	3144 <__extendsfdf2>
    1944:	1009883a 	mov	r4,r2
    1948:	180b883a 	mov	r5,r3
    194c:	d993e517 	ldw	r6,20372(sp)
    1950:	d9d3e617 	ldw	r7,20376(sp)
    1954:	000369c0 	call	369c <__muldf3>
    1958:	8009883a 	mov	r4,r16
    195c:	880b883a 	mov	r5,r17
    1960:	100d883a 	mov	r6,r2
    1964:	180f883a 	mov	r7,r3
    1968:	00036280 	call	3628 <__adddf3>
    196c:	1021883a 	mov	r16,r2
    1970:	1823883a 	mov	r17,r3
        sum += DCT_LIFTER[i][15]*FBE[15 + m*NUM_BANKS];
    1974:	a1000f17 	ldw	r4,60(r20)
    1978:	00031440 	call	3144 <__extendsfdf2>
    197c:	1009883a 	mov	r4,r2
    1980:	180b883a 	mov	r5,r3
    1984:	d993e317 	ldw	r6,20364(sp)
    1988:	d9d3e417 	ldw	r7,20368(sp)
    198c:	000369c0 	call	369c <__muldf3>
    1990:	8009883a 	mov	r4,r16
    1994:	880b883a 	mov	r5,r17
    1998:	100d883a 	mov	r6,r2
    199c:	180f883a 	mov	r7,r3
    19a0:	00036280 	call	3628 <__adddf3>
    19a4:	1021883a 	mov	r16,r2
    19a8:	1823883a 	mov	r17,r3
        sum += DCT_LIFTER[i][16]*FBE[16 + m*NUM_BANKS];
    19ac:	a1001017 	ldw	r4,64(r20)
    19b0:	00031440 	call	3144 <__extendsfdf2>
    19b4:	1009883a 	mov	r4,r2
    19b8:	180b883a 	mov	r5,r3
    19bc:	d993e117 	ldw	r6,20356(sp)
    19c0:	d9d3e217 	ldw	r7,20360(sp)
    19c4:	000369c0 	call	369c <__muldf3>
    19c8:	8009883a 	mov	r4,r16
    19cc:	880b883a 	mov	r5,r17
    19d0:	100d883a 	mov	r6,r2
    19d4:	180f883a 	mov	r7,r3
    19d8:	00036280 	call	3628 <__adddf3>
    19dc:	1021883a 	mov	r16,r2
    19e0:	1823883a 	mov	r17,r3
        sum += DCT_LIFTER[i][17]*FBE[17 + m*NUM_BANKS];
    19e4:	a1001117 	ldw	r4,68(r20)
    19e8:	00031440 	call	3144 <__extendsfdf2>
    19ec:	1009883a 	mov	r4,r2
    19f0:	180b883a 	mov	r5,r3
    19f4:	d993df17 	ldw	r6,20348(sp)
    19f8:	d9d3e017 	ldw	r7,20352(sp)
    19fc:	000369c0 	call	369c <__muldf3>
    1a00:	8009883a 	mov	r4,r16
    1a04:	880b883a 	mov	r5,r17
    1a08:	100d883a 	mov	r6,r2
    1a0c:	180f883a 	mov	r7,r3
    1a10:	00036280 	call	3628 <__adddf3>
    1a14:	1021883a 	mov	r16,r2
    1a18:	1823883a 	mov	r17,r3
        sum += DCT_LIFTER[i][18]*FBE[18 + m*NUM_BANKS];
    1a1c:	a1001217 	ldw	r4,72(r20)
    1a20:	00031440 	call	3144 <__extendsfdf2>
    1a24:	1009883a 	mov	r4,r2
    1a28:	180b883a 	mov	r5,r3
    1a2c:	d993dd17 	ldw	r6,20340(sp)
    1a30:	d9d3de17 	ldw	r7,20344(sp)
    1a34:	000369c0 	call	369c <__muldf3>
    1a38:	8009883a 	mov	r4,r16
    1a3c:	880b883a 	mov	r5,r17
    1a40:	100d883a 	mov	r6,r2
    1a44:	180f883a 	mov	r7,r3
    1a48:	00036280 	call	3628 <__adddf3>
    1a4c:	1021883a 	mov	r16,r2
    1a50:	1823883a 	mov	r17,r3
        sum += DCT_LIFTER[i][19]*FBE[19 + m*NUM_BANKS];
      //}
      output[i + m*NUM_CC] = sum;
    1a54:	a1001317 	ldw	r4,76(r20)
    1a58:	00031440 	call	3144 <__extendsfdf2>
    1a5c:	1009883a 	mov	r4,r2
    1a60:	180b883a 	mov	r5,r3
    1a64:	a80d883a 	mov	r6,r21
    1a68:	b00f883a 	mov	r7,r22
    1a6c:	000369c0 	call	369c <__muldf3>
    1a70:	8009883a 	mov	r4,r16
    1a74:	880b883a 	mov	r5,r17
    1a78:	100d883a 	mov	r6,r2
    1a7c:	180f883a 	mov	r7,r3
    1a80:	00036280 	call	3628 <__adddf3>
    1a84:	b8800015 	stw	r2,0(r23)
    1a88:	b8c00115 	stw	r3,4(r23)
        //if(m == 0 && (frames[j + m*numFFTPoints] == 0)) printf(" %lf\n", sum);
      }
      FBE[i + m*NUM_BANKS] = (sum <= 0) ? -100000 : log10(sum);
    }
    // DCT and lifter
    for (i = 0; i < NUM_CC; i++) {
    1a8c:	d893dc17 	ldw	r2,20336(sp)
    1a90:	10800044 	addi	r2,r2,1
    1a94:	d893dc15 	stw	r2,20336(sp)
    1a98:	00801404 	movi	r2,80
    1a9c:	e0b9883a 	add	fp,fp,r2
    1aa0:	a0a9883a 	add	r20,r20,r2
    1aa4:	bdc00204 	addi	r23,r23,8
    1aa8:	00800344 	movi	r2,13
    1aac:	d8d3dc17 	ldw	r3,20336(sp)
    1ab0:	18bede1e 	bne	r3,r2,162c <mfcc+0x2f4>
    1ab4:	d913da17 	ldw	r4,20328(sp)
    1ab8:	21001a04 	addi	r4,r4,104
    1abc:	d913da15 	stw	r4,20328(sp)
    1ac0:	d893d917 	ldw	r2,20324(sp)
    1ac4:	10800504 	addi	r2,r2,20
    1ac8:	d893d915 	stw	r2,20324(sp)
    1acc:	d8d3d817 	ldw	r3,20320(sp)
    1ad0:	18c01044 	addi	r3,r3,65
    1ad4:	d8d3d815 	stw	r3,20320(sp)
  int i, j, m, start, end;
  // Filter bank energies
  double FBE[numFrames*NUM_BANKS];
  double sum;
  // Apply triangle filter bank and take log
  for (m = 0; m < numFrames; m++) {
    1ad8:	00827b04 	movi	r2,2540
    1adc:	d913d917 	ldw	r4,20324(sp)
    1ae0:	20801126 	beq	r4,r2,1b28 <mfcc+0x7f0>
        sum += DCT_LIFTER[i][19]*FBE[19 + m*NUM_BANKS];
      //}
      output[i + m*NUM_CC] = sum;
    }
  }
    1ae4:	d893d817 	ldw	r2,20320(sp)
    1ae8:	d8940415 	stw	r2,20496(sp)
    1aec:	d8d3d917 	ldw	r3,20324(sp)
    1af0:	d8d40315 	stw	r3,20492(sp)
    1af4:	002f883a 	mov	r23,zero
    1af8:	01000074 	movhi	r4,1
    1afc:	211f0f04 	addi	r4,r4,31804
    1b00:	d913db15 	stw	r4,20332(sp)
    1b04:	07000074 	movhi	fp,1
    1b08:	e71f2304 	addi	fp,fp,31884
    1b0c:	003e1a06 	br	1378 <mfcc+0x40>
    1b10:	d893d917 	ldw	r2,20324(sp)
    1b14:	b8a5883a 	add	r18,r23,r2
    1b18:	0009883a 	mov	r4,zero
    1b1c:	01703e34 	movhi	r5,49400
    1b20:	295a8004 	addi	r5,r5,27136
    1b24:	003e4c06 	br	1458 <mfcc+0x120>
    1b28:	dfd40f17 	ldw	ra,20540(sp)
    1b2c:	df140e17 	ldw	fp,20536(sp)
    1b30:	ddd40d17 	ldw	r23,20532(sp)
    1b34:	dd940c17 	ldw	r22,20528(sp)
    1b38:	dd540b17 	ldw	r21,20524(sp)
    1b3c:	dd140a17 	ldw	r20,20520(sp)
    1b40:	dcd40917 	ldw	r19,20516(sp)
    1b44:	dc940817 	ldw	r18,20512(sp)
    1b48:	dc540717 	ldw	r17,20508(sp)
    1b4c:	dc140617 	ldw	r16,20504(sp)
    1b50:	ded41004 	addi	sp,sp,20544
    1b54:	f800283a 	ret

00001b58 <main>:
  for (i=0; i < NUM_CC*numFrames; i++) {
    printf("%lf", sampleMFCC[i]);
  }
}

int main(void) {
    1b58:	defff204 	addi	sp,sp,-56
    1b5c:	dfc00d15 	stw	ra,52(sp)
    1b60:	df000c15 	stw	fp,48(sp)
    1b64:	ddc00b15 	stw	r23,44(sp)
    1b68:	dd800a15 	stw	r22,40(sp)
    1b6c:	dd400915 	stw	r21,36(sp)
    1b70:	dd000815 	stw	r20,32(sp)
    1b74:	dcc00715 	stw	r19,28(sp)
    1b78:	dc800615 	stw	r18,24(sp)
    1b7c:	dc400515 	stw	r17,20(sp)
    1b80:	dc000415 	stw	r16,16(sp)
  return 0;
}

/* Set up audio and pushbutton interrupts. */
static void configure_interrupts () {
  audio_init (audio_isr);
    1b84:	01000034 	movhi	r4,0
    1b88:	21006d04 	addi	r4,r4,436
    1b8c:	00006440 	call	644 <audio_init>
  pushbuttons_enable_interrupts (pushbuttons_isr);
    1b90:	01000034 	movhi	r4,0
    1b94:	21084704 	addi	r4,r4,8476
    1b98:	0000b940 	call	b94 <pushbuttons_enable_interrupts>
  pushbuttons_set_interrupt_mask (BUTTON2|BUTTON1);
    1b9c:	01000184 	movi	r4,6
    1ba0:	0000b600 	call	b60 <pushbuttons_set_interrupt_mask>
  char_lcd_cursor_off();
}

/* Allocate the FFT configuration stryct and prepare sample array. */
static int configure_fft () {
  fft_cfg = kiss_fft_alloc (FFT_LEN, 0, NULL, 0);
    1ba4:	01002004 	movi	r4,128
    1ba8:	000b883a 	mov	r5,zero
    1bac:	000d883a 	mov	r6,zero
    1bb0:	000f883a 	mov	r7,zero
    1bb4:	00005040 	call	504 <kiss_fft_alloc>
    1bb8:	d087fb15 	stw	r2,8172(gp)
  if (! fft_cfg) {
    1bbc:	10011c1e 	bne	r2,zero,2030 <main+0x4d8>
    1bc0:	00011e06 	br	203c <main+0x4e4>
 * --------------------
 * Prepare all interrupts and interfaces. Returns 0 on success, nonzero otherwise.
 */

static void training() {
    char_lcd_move_cursor(0,0);
    1bc4:	0009883a 	mov	r4,zero
    1bc8:	000b883a 	mov	r5,zero
    1bcc:	000067c0 	call	67c <char_lcd_move_cursor>
    char_lcd_write("Push BTN1");
    1bd0:	01000074 	movhi	r4,1
    1bd4:	213ddd04 	addi	r4,r4,-2188
    1bd8:	00006a80 	call	6a8 <char_lcd_write>
    char_lcd_move_cursor(0,1);
    1bdc:	0009883a 	mov	r4,zero
    1be0:	01400044 	movi	r5,1
    1be4:	000067c0 	call	67c <char_lcd_move_cursor>
    char_lcd_write("And say Yes");
    1be8:	01000074 	movhi	r4,1
    1bec:	213de004 	addi	r4,r4,-2176
    1bf0:	00006a80 	call	6a8 <char_lcd_write>
    while(!audio_ready);
    1bf4:	d087fa03 	ldbu	r2,8168(gp)
    1bf8:	10803fcc 	andi	r2,r2,255
    1bfc:	103ffd26 	beq	r2,zero,1bf4 <main+0x9c>
    clearLCDChar();
    1c00:	00012c00 	call	12c0 <clearLCDChar>
    char_lcd_move_cursor(0,0);
    1c04:	0009883a 	mov	r4,zero
    1c08:	000b883a 	mov	r5,zero
    1c0c:	000067c0 	call	67c <char_lcd_move_cursor>
    char_lcd_write("Processing");
    1c10:	01000074 	movhi	r4,1
    1c14:	213de304 	addi	r4,r4,-2164
    1c18:	00006a80 	call	6a8 <char_lcd_write>
    fft(yesBuffer);
    1c1c:	010000b4 	movhi	r4,2
    1c20:	210fd704 	addi	r4,r4,16220
    1c24:	00010a40 	call	10a4 <fft>
    audio_ready = false;
    1c28:	d007fa05 	stb	zero,8168(gp)
    working = false;
    1c2c:	008000b4 	movhi	r2,2
    1c30:	108ec904 	addi	r2,r2,15140
    1c34:	10000005 	stb	zero,0(r2)

    clearLCDChar();
    1c38:	00012c00 	call	12c0 <clearLCDChar>
    char_lcd_move_cursor(0,0);
    1c3c:	0009883a 	mov	r4,zero
    1c40:	000b883a 	mov	r5,zero
    1c44:	000067c0 	call	67c <char_lcd_move_cursor>
    char_lcd_write("Push BTN1");
    1c48:	01000074 	movhi	r4,1
    1c4c:	213ddd04 	addi	r4,r4,-2188
    1c50:	00006a80 	call	6a8 <char_lcd_write>
    char_lcd_move_cursor(0,1);
    1c54:	0009883a 	mov	r4,zero
    1c58:	01400044 	movi	r5,1
    1c5c:	000067c0 	call	67c <char_lcd_move_cursor>
    char_lcd_write("And say No");
    1c60:	01000074 	movhi	r4,1
    1c64:	213de604 	addi	r4,r4,-2152
    1c68:	00006a80 	call	6a8 <char_lcd_write>
    while(!audio_ready);
    1c6c:	d087fa03 	ldbu	r2,8168(gp)
    1c70:	10803fcc 	andi	r2,r2,255
    1c74:	103ffd26 	beq	r2,zero,1c6c <main+0x114>
    clearLCDChar();
    1c78:	00012c00 	call	12c0 <clearLCDChar>
    char_lcd_move_cursor(0,0);
    1c7c:	0009883a 	mov	r4,zero
    1c80:	000b883a 	mov	r5,zero
    1c84:	000067c0 	call	67c <char_lcd_move_cursor>
    char_lcd_write("Processing");
    1c88:	01000074 	movhi	r4,1
    1c8c:	213de304 	addi	r4,r4,-2164
    1c90:	00006a80 	call	6a8 <char_lcd_write>
    fft(noBuffer);
    1c94:	01000134 	movhi	r4,4
    1c98:	210fd704 	addi	r4,r4,16220
    1c9c:	00010a40 	call	10a4 <fft>
    audio_ready = false;
    1ca0:	d007fa05 	stb	zero,8168(gp)
    working = false;
    1ca4:	008000b4 	movhi	r2,2
    1ca8:	108ec904 	addi	r2,r2,15140
    1cac:	10000005 	stb	zero,0(r2)
 * -------------
 * Request audio, then perform an FFT and draw it. Repeat.
 */
void run (void) {
  while (true) {
    clearLCDChar();
    1cb0:	00012c00 	call	12c0 <clearLCDChar>
    char_lcd_move_cursor(0,0);
    1cb4:	0009883a 	mov	r4,zero
    1cb8:	000b883a 	mov	r5,zero
    1cbc:	000067c0 	call	67c <char_lcd_move_cursor>
    char_lcd_write("Push BTN1");
    1cc0:	01000074 	movhi	r4,1
    1cc4:	213ddd04 	addi	r4,r4,-2188
    1cc8:	00006a80 	call	6a8 <char_lcd_write>
    char_lcd_move_cursor(0,1);
    1ccc:	0009883a 	mov	r4,zero
    1cd0:	01400044 	movi	r5,1
    1cd4:	000067c0 	call	67c <char_lcd_move_cursor>
    char_lcd_write("To Operate");
    1cd8:	01000074 	movhi	r4,1
    1cdc:	213de904 	addi	r4,r4,-2140
    1ce0:	00006a80 	call	6a8 <char_lcd_write>
    //samples_for_fft_requested = true; // Request audio
    while (!audio_ready); // Wait for audio
    1ce4:	d087fa03 	ldbu	r2,8168(gp)
    1ce8:	10803fcc 	andi	r2,r2,255
    1cec:	103ffd26 	beq	r2,zero,1ce4 <main+0x18c>
    green_leds_set (0xFF);
    1cf0:	04003fc4 	movi	r16,255
    1cf4:	8009883a 	mov	r4,r16
    1cf8:	00007000 	call	700 <green_leds_set>
    clearLCDChar();
    1cfc:	00012c00 	call	12c0 <clearLCDChar>
    char_lcd_move_cursor(0,0);
    1d00:	0009883a 	mov	r4,zero
    1d04:	000b883a 	mov	r5,zero
    1d08:	000067c0 	call	67c <char_lcd_move_cursor>
    char_lcd_write("Processing");
    1d0c:	01000074 	movhi	r4,1
    1d10:	213de304 	addi	r4,r4,-2164
    1d14:	00006a80 	call	6a8 <char_lcd_write>
    if (bruteForce) fft (sampleBuffer);
    1d18:	d0a01803 	ldbu	r2,-32672(gp)
    1d1c:	10000b26 	beq	r2,zero,1d4c <main+0x1f4>
    1d20:	010001b4 	movhi	r4,6
    1d24:	210fd704 	addi	r4,r4,16220
    1d28:	00010a40 	call	10a4 <fft>
    else {
      fft_mag_window(windowedSampleBuffer);
      mfcc(windowedSampleBuffer, sampleMFCC);
    }
    green_leds_clear (0xFF);
    1d2c:	8009883a 	mov	r4,r16
    1d30:	00007200 	call	720 <green_leds_clear>
    1d34:	0039883a 	mov	fp,zero
    1d38:	002d883a 	mov	r22,zero
    1d3c:	002f883a 	mov	r23,zero
    1d40:	0029883a 	mov	r20,zero
    1d44:	002b883a 	mov	r21,zero
    1d48:	00001306 	br	1d98 <main+0x240>
    clearLCDChar();
    char_lcd_move_cursor(0,0);
    char_lcd_write("Processing");
    if (bruteForce) fft (sampleBuffer);
    else {
      fft_mag_window(windowedSampleBuffer);
    1d4c:	04000234 	movhi	r16,8
    1d50:	840fd704 	addi	r16,r16,16220
    1d54:	8009883a 	mov	r4,r16
    1d58:	0000e500 	call	e50 <fft_mag_window>
      mfcc(windowedSampleBuffer, sampleMFCC);
    1d5c:	04400274 	movhi	r17,9
    1d60:	8c505504 	addi	r17,r17,16724
    1d64:	8009883a 	mov	r4,r16
    1d68:	880b883a 	mov	r5,r17
    1d6c:	00013380 	call	1338 <mfcc>
    }
    green_leds_clear (0xFF);
    1d70:	01003fc4 	movi	r4,255
    1d74:	00007200 	call	720 <green_leds_clear>
    1d78:	002d883a 	mov	r22,zero
    1d7c:	002f883a 	mov	r23,zero
    1d80:	0029883a 	mov	r20,zero
    1d84:	002b883a 	mov	r21,zero
    1d88:	07000074 	movhi	fp,1
    1d8c:	e73f2b04 	addi	fp,fp,-852
    1d90:	dc400115 	stw	r17,4(sp)
    1d94:	00006606 	br	1f30 <main+0x3d8>
    {
      dot_yes = 0;
      dot_no = 0;
      for (i = 0; i < NUM_SAMPLES*2; i++)
       {
        offset_index = (i + j) % (2*NUM_SAMPLES);
    1d98:	00a00034 	movhi	r2,32768
    1d9c:	108fffc4 	addi	r2,r2,16383
    1da0:	e0a0703a 	and	r16,fp,r2
    1da4:	8000040e 	bge	r16,zero,1db8 <main+0x260>
    1da8:	843fffc4 	addi	r16,r16,-1
    1dac:	00b00004 	movi	r2,-16384
    1db0:	80a0b03a 	or	r16,r16,r2
    1db4:	84000044 	addi	r16,r16,1
        dot_yes += yesBuffer[i]*sampleBuffer[offset_index];
    1db8:	e02290fa 	slli	r17,fp,3
    1dbc:	008000b4 	movhi	r2,2
    1dc0:	108fd704 	addi	r2,r2,16220
    1dc4:	8885883a 	add	r2,r17,r2
    1dc8:	11400017 	ldw	r5,0(r2)
    1dcc:	11800117 	ldw	r6,4(r2)
    1dd0:	802090fa 	slli	r16,r16,3
    1dd4:	008001b4 	movhi	r2,6
    1dd8:	108fd704 	addi	r2,r2,16220
    1ddc:	80a1883a 	add	r16,r16,r2
    1de0:	80800017 	ldw	r2,0(r16)
    1de4:	80c00117 	ldw	r3,4(r16)
    1de8:	2809883a 	mov	r4,r5
    1dec:	300b883a 	mov	r5,r6
    1df0:	100d883a 	mov	r6,r2
    1df4:	180f883a 	mov	r7,r3
    1df8:	000369c0 	call	369c <__muldf3>
    1dfc:	b009883a 	mov	r4,r22
    1e00:	b80b883a 	mov	r5,r23
    1e04:	100d883a 	mov	r6,r2
    1e08:	180f883a 	mov	r7,r3
    1e0c:	00036280 	call	3628 <__adddf3>
    1e10:	1025883a 	mov	r18,r2
    1e14:	1827883a 	mov	r19,r3
    1e18:	102d883a 	mov	r22,r2
    1e1c:	182f883a 	mov	r23,r3
        dot_no += noBuffer[i]*sampleBuffer[offset_index];
    1e20:	00800134 	movhi	r2,4
    1e24:	108fd704 	addi	r2,r2,16220
    1e28:	88a3883a 	add	r17,r17,r2
    1e2c:	89400017 	ldw	r5,0(r17)
    1e30:	89800117 	ldw	r6,4(r17)
    1e34:	80800017 	ldw	r2,0(r16)
    1e38:	80c00117 	ldw	r3,4(r16)
    1e3c:	2809883a 	mov	r4,r5
    1e40:	300b883a 	mov	r5,r6
    1e44:	100d883a 	mov	r6,r2
    1e48:	180f883a 	mov	r7,r3
    1e4c:	000369c0 	call	369c <__muldf3>
    1e50:	a009883a 	mov	r4,r20
    1e54:	a80b883a 	mov	r5,r21
    1e58:	100d883a 	mov	r6,r2
    1e5c:	180f883a 	mov	r7,r3
    1e60:	00036280 	call	3628 <__adddf3>
    1e64:	100d883a 	mov	r6,r2
    1e68:	1029883a 	mov	r20,r2
    1e6c:	182b883a 	mov	r21,r3
    int nFFTs = NUM_SAMPLES / FFT_LEN;
    for (j = 0; j < 2*nFFTs; j+= 2*FFT_LEN)
    {
      dot_yes = 0;
      dot_no = 0;
      for (i = 0; i < NUM_SAMPLES*2; i++)
    1e70:	e7000044 	addi	fp,fp,1
    1e74:	00900004 	movi	r2,16384
    1e78:	e0bfc71e 	bne	fp,r2,1d98 <main+0x240>
    1e7c:	9009883a 	mov	r4,r18
    1e80:	980b883a 	mov	r5,r19
    1e84:	d9800215 	stw	r6,8(sp)
    1e88:	d8c00315 	stw	r3,12(sp)
       {
        offset_index = (i + j) % (2*NUM_SAMPLES);
        dot_yes += yesBuffer[i]*sampleBuffer[offset_index];
        dot_no += noBuffer[i]*sampleBuffer[offset_index];
       }
      if (dot_yes > dot_yes_max) dot_yes_max = dot_yes;
    1e8c:	043ff034 	movhi	r16,65472
    1e90:	04707834 	movhi	r17,49632
    1e94:	8c7fffc4 	addi	r17,r17,-1
    1e98:	800d883a 	mov	r6,r16
    1e9c:	880f883a 	mov	r7,r17
    1ea0:	0003d400 	call	3d40 <__gtdf2>
    1ea4:	00800216 	blt	zero,r2,1eb0 <main+0x358>
    1ea8:	802d883a 	mov	r22,r16
    1eac:	882f883a 	mov	r23,r17
      if (dot_no > dot_no_max) dot_no_max = dot_no;
    1eb0:	043ff034 	movhi	r16,65472
    1eb4:	04707834 	movhi	r17,49632
    1eb8:	8c7fffc4 	addi	r17,r17,-1
    1ebc:	d9000217 	ldw	r4,8(sp)
    1ec0:	d9400317 	ldw	r5,12(sp)
    1ec4:	800d883a 	mov	r6,r16
    1ec8:	880f883a 	mov	r7,r17
    1ecc:	0003d400 	call	3d40 <__gtdf2>
    1ed0:	00800216 	blt	zero,r2,1edc <main+0x384>
    1ed4:	8029883a 	mov	r20,r16
    1ed8:	882b883a 	mov	r21,r17
    }
    printf("%lf, %lf\n", dot_yes_max, dot_no_max);
    1edc:	dd400015 	stw	r21,0(sp)
    1ee0:	a00f883a 	mov	r7,r20
    1ee4:	01000074 	movhi	r4,1
    1ee8:	213dec04 	addi	r4,r4,-2128
    1eec:	b00b883a 	mov	r5,r22
    1ef0:	b80d883a 	mov	r6,r23
    1ef4:	0004efc0 	call	4efc <printf>
    if (dot_yes_max >= dot_no_max) printf("Yes\n");
    1ef8:	b009883a 	mov	r4,r22
    1efc:	b80b883a 	mov	r5,r23
    1f00:	a00d883a 	mov	r6,r20
    1f04:	a80f883a 	mov	r7,r21
    1f08:	0003dc80 	call	3dc8 <__gedf2>
    1f0c:	10000416 	blt	r2,zero,1f20 <main+0x3c8>
    1f10:	01000074 	movhi	r4,1
    1f14:	213de204 	addi	r4,r4,-2168
    1f18:	00050140 	call	5014 <puts>
    1f1c:	00003f06 	br	201c <main+0x4c4>
    else printf("No\n");
    1f20:	01000074 	movhi	r4,1
    1f24:	213de804 	addi	r4,r4,-2144
    1f28:	00050140 	call	5014 <puts>
    1f2c:	00003b06 	br	201c <main+0x4c4>
  else {
    double prob[NUM_ROWS] = {0.0, 0.0};
    int j;
    //unrolled loop
    for (j = 0; j < NUM_CC*numFrames; j++) {
      prob[0] += mat[0][j] * sampleMFCC[j];
    1f30:	d8c00117 	ldw	r3,4(sp)
    1f34:	1c000017 	ldw	r16,0(r3)
    1f38:	1c400117 	ldw	r17,4(r3)
    1f3c:	8009883a 	mov	r4,r16
    1f40:	880b883a 	mov	r5,r17
    1f44:	e1800017 	ldw	r6,0(fp)
    1f48:	e1c00117 	ldw	r7,4(fp)
    1f4c:	000369c0 	call	369c <__muldf3>
    1f50:	a009883a 	mov	r4,r20
    1f54:	a80b883a 	mov	r5,r21
    1f58:	100d883a 	mov	r6,r2
    1f5c:	180f883a 	mov	r7,r3
    1f60:	00036280 	call	3628 <__adddf3>
    1f64:	1025883a 	mov	r18,r2
    1f68:	1827883a 	mov	r19,r3
    1f6c:	1029883a 	mov	r20,r2
    1f70:	182b883a 	mov	r21,r3
      prob[1] += mat[1][j] * sampleMFCC[j];
    1f74:	8009883a 	mov	r4,r16
    1f78:	880b883a 	mov	r5,r17
    1f7c:	e18ce617 	ldw	r6,13208(fp)
    1f80:	e1cce717 	ldw	r7,13212(fp)
    1f84:	000369c0 	call	369c <__muldf3>
    1f88:	b009883a 	mov	r4,r22
    1f8c:	b80b883a 	mov	r5,r23
    1f90:	100d883a 	mov	r6,r2
    1f94:	180f883a 	mov	r7,r3
    1f98:	00036280 	call	3628 <__adddf3>
    1f9c:	1021883a 	mov	r16,r2
    1fa0:	1823883a 	mov	r17,r3
    1fa4:	102d883a 	mov	r22,r2
    1fa8:	182f883a 	mov	r23,r3
    1fac:	00800204 	movi	r2,8
    1fb0:	e0b9883a 	add	fp,fp,r2
    1fb4:	d8c00117 	ldw	r3,4(sp)
    1fb8:	1887883a 	add	r3,r3,r2
    1fbc:	d8c00115 	stw	r3,4(sp)
  }
  else {
    double prob[NUM_ROWS] = {0.0, 0.0};
    int j;
    //unrolled loop
    for (j = 0; j < NUM_CC*numFrames; j++) {
    1fc0:	00800074 	movhi	r2,1
    1fc4:	108c1104 	addi	r2,r2,12356
    1fc8:	e0bfd91e 	bne	fp,r2,1f30 <main+0x3d8>
      prob[0] += mat[0][j] * sampleMFCC[j];
      prob[1] += mat[1][j] * sampleMFCC[j];
    }
    printf("%lf, %lf\n", prob[0], prob[1]);
    1fcc:	dc400015 	stw	r17,0(sp)
    1fd0:	800f883a 	mov	r7,r16
    1fd4:	01000074 	movhi	r4,1
    1fd8:	213dec04 	addi	r4,r4,-2128
    1fdc:	900b883a 	mov	r5,r18
    1fe0:	980d883a 	mov	r6,r19
    1fe4:	0004efc0 	call	4efc <printf>
    if (prob[0] >= prob[1]) printf("Yes\n");
    1fe8:	9009883a 	mov	r4,r18
    1fec:	980b883a 	mov	r5,r19
    1ff0:	800d883a 	mov	r6,r16
    1ff4:	880f883a 	mov	r7,r17
    1ff8:	0003dc80 	call	3dc8 <__gedf2>
    1ffc:	10000416 	blt	r2,zero,2010 <main+0x4b8>
    2000:	01000074 	movhi	r4,1
    2004:	213de204 	addi	r4,r4,-2168
    2008:	00050140 	call	5014 <puts>
    200c:	00000306 	br	201c <main+0x4c4>
    else printf("No\n");
    2010:	01000074 	movhi	r4,1
    2014:	213de804 	addi	r4,r4,-2144
    2018:	00050140 	call	5014 <puts>
    // int i;
    // for (i = 0; i < NUM_CC*numFrames; i++) {
    //   printMFCC(sampleMFCC[i]);
    // }
    //end
    audio_ready = false;
    201c:	d007fa05 	stb	zero,8168(gp)
    working = false;
    2020:	008000b4 	movhi	r2,2
    2024:	108ec904 	addi	r2,r2,15140
    2028:	10000005 	stb	zero,0(r2)
    202c:	003f2006 	br	1cb0 <main+0x158>
  configure_interrupts ();

  if (configure_fft() != 0) {
    return 1;
  }
  if(bruteForce) {
    2030:	d0a01803 	ldbu	r2,-32672(gp)
    2034:	103f1e26 	beq	r2,zero,1cb0 <main+0x158>
    2038:	003ee206 	br	1bc4 <main+0x6c>

/* Allocate the FFT configuration stryct and prepare sample array. */
static int configure_fft () {
  fft_cfg = kiss_fft_alloc (FFT_LEN, 0, NULL, 0);
  if (! fft_cfg) {
    printf ("Error: Cannot allocate memory for FFT control structure.\n");
    203c:	01000074 	movhi	r4,1
    2040:	213dce04 	addi	r4,r4,-2248
    2044:	00050140 	call	5014 <puts>
  //testMFCC();
  // /* Repeatedly checks state and makes updates. */
  run ();

  return 0;
}
    2048:	00800044 	movi	r2,1
    204c:	dfc00d17 	ldw	ra,52(sp)
    2050:	df000c17 	ldw	fp,48(sp)
    2054:	ddc00b17 	ldw	r23,44(sp)
    2058:	dd800a17 	ldw	r22,40(sp)
    205c:	dd400917 	ldw	r21,36(sp)
    2060:	dd000817 	ldw	r20,32(sp)
    2064:	dcc00717 	ldw	r19,28(sp)
    2068:	dc800617 	ldw	r18,24(sp)
    206c:	dc400517 	ldw	r17,20(sp)
    2070:	dc000417 	ldw	r16,16(sp)
    2074:	dec00e04 	addi	sp,sp,56
    2078:	f800283a 	ret

0000207c <testMFCC>:
 * Function: main
 * --------------
 * main simply calls initialize() then run().
 */

void testMFCC() {
    207c:	defffd04 	addi	sp,sp,-12
    2080:	dfc00215 	stw	ra,8(sp)
    2084:	dc400115 	stw	r17,4(sp)
    2088:	dc000015 	stw	r16,0(sp)
    208c:	0007883a 	mov	r3,zero
    2090:	0009883a 	mov	r4,zero
    2094:	02000274 	movhi	r8,9
    2098:	421d4504 	addi	r8,r8,29972
    209c:	01c00044 	movi	r7,1
    20a0:	0180fa04 	movi	r6,1000
    20a4:	01480004 	movi	r5,8192
  int i;
  for(i = 0; i < NUM_SAMPLES; i++) {
    samples_for_fft[i].r = 1000*i;
    20a8:	180490fa 	slli	r2,r3,3
    20ac:	1205883a 	add	r2,r2,r8
    20b0:	11000015 	stw	r4,0(r2)
 * main simply calls initialize() then run().
 */

void testMFCC() {
  int i;
  for(i = 0; i < NUM_SAMPLES; i++) {
    20b4:	19c7883a 	add	r3,r3,r7
    20b8:	2189883a 	add	r4,r4,r6
    20bc:	197ffa1e 	bne	r3,r5,20a8 <testMFCC+0x2c>
    samples_for_fft[i].r = 1000*i;
  }
  fft_mag_window(windowedSampleBuffer);
    20c0:	04000234 	movhi	r16,8
    20c4:	840fd704 	addi	r16,r16,16220
    20c8:	8009883a 	mov	r4,r16
    20cc:	0000e500 	call	e50 <fft_mag_window>
  mfcc(windowedSampleBuffer, sampleMFCC);
    20d0:	04400274 	movhi	r17,9
    20d4:	8c505504 	addi	r17,r17,16724
    20d8:	8009883a 	mov	r4,r16
    20dc:	880b883a 	mov	r5,r17
    20e0:	00013380 	call	1338 <mfcc>
    20e4:	04000274 	movhi	r16,9
    20e8:	841d3b04 	addi	r16,r16,29932
  for (i=0; i < NUM_CC*numFrames; i++) {
    printf("%lf", sampleMFCC[i]);
    20ec:	01000074 	movhi	r4,1
    20f0:	213def04 	addi	r4,r4,-2116
    20f4:	89400017 	ldw	r5,0(r17)
    20f8:	89800117 	ldw	r6,4(r17)
    20fc:	0004efc0 	call	4efc <printf>
    2100:	8c400204 	addi	r17,r17,8
  for(i = 0; i < NUM_SAMPLES; i++) {
    samples_for_fft[i].r = 1000*i;
  }
  fft_mag_window(windowedSampleBuffer);
  mfcc(windowedSampleBuffer, sampleMFCC);
  for (i=0; i < NUM_CC*numFrames; i++) {
    2104:	8c3ff91e 	bne	r17,r16,20ec <testMFCC+0x70>
    printf("%lf", sampleMFCC[i]);
  }
}
    2108:	dfc00217 	ldw	ra,8(sp)
    210c:	dc400117 	ldw	r17,4(sp)
    2110:	dc000017 	ldw	r16,0(sp)
    2114:	dec00304 	addi	sp,sp,12
    2118:	f800283a 	ret

0000211c <pushbuttons_isr>:
 */
 extern volatile bool samples_for_fft_requested;
 extern volatile bool working;
 
void pushbuttons_isr (void *context, unsigned int id)
{
    211c:	deffff04 	addi	sp,sp,-4
    2120:	dfc00015 	stw	ra,0(sp)
  uint32_t edges = pushbuttons_get_edge_capture ();
    2124:	0000b780 	call	b78 <pushbuttons_get_edge_capture>
  if (edges & BUTTON1 && !working)
    2128:	1080008c 	andi	r2,r2,2
    212c:	10000a26 	beq	r2,zero,2158 <pushbuttons_isr+0x3c>
    2130:	010000b4 	movhi	r4,2
    2134:	210ec904 	addi	r4,r4,15140
    2138:	20800003 	ldbu	r2,0(r4)
    213c:	10803fcc 	andi	r2,r2,255
    2140:	1000051e 	bne	r2,zero,2158 <pushbuttons_isr+0x3c>
    {
      samples_for_fft_requested = true;
    2144:	00c00044 	movi	r3,1
    2148:	008000b4 	movhi	r2,2
    214c:	108ec704 	addi	r2,r2,15132
    2150:	10c00005 	stb	r3,0(r2)
      working = true;
    2154:	20c00005 	stb	r3,0(r4)
    }
  pushbuttons_clear_edge_capture ();
    2158:	0000b840 	call	b84 <pushbuttons_clear_edge_capture>
}
    215c:	dfc00017 	ldw	ra,0(sp)
    2160:	dec00104 	addi	sp,sp,4
    2164:	f800283a 	ret

00002168 <switches_isr>:
 *
 */
void switches_isr(void *context, unsigned int id)
{

}
    2168:	f800283a 	ret

0000216c <log10>:
    216c:	defff104 	addi	sp,sp,-60
    2170:	dd000d15 	stw	r20,52(sp)
    2174:	050000b4 	movhi	r20,2
    2178:	a526e404 	addi	r20,r20,-25712
    217c:	dcc00c15 	stw	r19,48(sp)
    2180:	dc800b15 	stw	r18,44(sp)
    2184:	dc400a15 	stw	r17,40(sp)
    2188:	dc000915 	stw	r16,36(sp)
    218c:	2025883a 	mov	r18,r4
    2190:	dfc00e15 	stw	ra,56(sp)
    2194:	2827883a 	mov	r19,r5
    2198:	00024240 	call	2424 <__ieee754_log10>
    219c:	a1000017 	ldw	r4,0(r20)
    21a0:	1021883a 	mov	r16,r2
    21a4:	00bfffc4 	movi	r2,-1
    21a8:	1823883a 	mov	r17,r3
    21ac:	20800a26 	beq	r4,r2,21d8 <log10+0x6c>
    21b0:	9009883a 	mov	r4,r18
    21b4:	980b883a 	mov	r5,r19
    21b8:	00029040 	call	2904 <__isnand>
    21bc:	1000061e 	bne	r2,zero,21d8 <log10+0x6c>
    21c0:	000d883a 	mov	r6,zero
    21c4:	000f883a 	mov	r7,zero
    21c8:	9009883a 	mov	r4,r18
    21cc:	980b883a 	mov	r5,r19
    21d0:	0003ed80 	call	3ed8 <__ledf2>
    21d4:	00800a0e 	bge	zero,r2,2200 <log10+0x94>
    21d8:	8005883a 	mov	r2,r16
    21dc:	8807883a 	mov	r3,r17
    21e0:	dfc00e17 	ldw	ra,56(sp)
    21e4:	dd000d17 	ldw	r20,52(sp)
    21e8:	dcc00c17 	ldw	r19,48(sp)
    21ec:	dc800b17 	ldw	r18,44(sp)
    21f0:	dc400a17 	ldw	r17,40(sp)
    21f4:	dc000917 	ldw	r16,36(sp)
    21f8:	dec00f04 	addi	sp,sp,60
    21fc:	f800283a 	ret
    2200:	a4000017 	ldw	r16,0(r20)
    2204:	00800074 	movhi	r2,1
    2208:	10bdf004 	addi	r2,r2,-2112
    220c:	d8800115 	stw	r2,4(sp)
    2210:	d8000815 	stw	zero,32(sp)
    2214:	dc800215 	stw	r18,8(sp)
    2218:	dcc00315 	stw	r19,12(sp)
    221c:	dc800415 	stw	r18,16(sp)
    2220:	dcc00515 	stw	r19,20(sp)
    2224:	8000231e 	bne	r16,zero,22b4 <log10+0x148>
    2228:	00b80034 	movhi	r2,57344
    222c:	00f1fc34 	movhi	r3,51184
    2230:	18ffffc4 	addi	r3,r3,-1
    2234:	d8800615 	stw	r2,24(sp)
    2238:	d8c00715 	stw	r3,28(sp)
    223c:	000d883a 	mov	r6,zero
    2240:	000f883a 	mov	r7,zero
    2244:	980b883a 	mov	r5,r19
    2248:	9009883a 	mov	r4,r18
    224c:	0003cb80 	call	3cb8 <__eqdf2>
    2250:	10000b1e 	bne	r2,zero,2280 <log10+0x114>
    2254:	00800084 	movi	r2,2
    2258:	d8800015 	stw	r2,0(sp)
    225c:	80801d26 	beq	r16,r2,22d4 <log10+0x168>
    2260:	d809883a 	mov	r4,sp
    2264:	00029340 	call	2934 <matherr>
    2268:	10001a26 	beq	r2,zero,22d4 <log10+0x168>
    226c:	d8800817 	ldw	r2,32(sp)
    2270:	10001c1e 	bne	r2,zero,22e4 <log10+0x178>
    2274:	dc000617 	ldw	r16,24(sp)
    2278:	dc400717 	ldw	r17,28(sp)
    227c:	003fd606 	br	21d8 <log10+0x6c>
    2280:	00800044 	movi	r2,1
    2284:	00c00084 	movi	r3,2
    2288:	d8800015 	stw	r2,0(sp)
    228c:	80c00d26 	beq	r16,r3,22c4 <log10+0x158>
    2290:	d809883a 	mov	r4,sp
    2294:	00029340 	call	2934 <matherr>
    2298:	10000a26 	beq	r2,zero,22c4 <log10+0x158>
    229c:	01000074 	movhi	r4,1
    22a0:	213ddc04 	addi	r4,r4,-2192
    22a4:	000293c0 	call	293c <nan>
    22a8:	d8c00715 	stw	r3,28(sp)
    22ac:	d8800615 	stw	r2,24(sp)
    22b0:	003fee06 	br	226c <log10+0x100>
    22b4:	00bffc34 	movhi	r2,65520
    22b8:	d8800715 	stw	r2,28(sp)
    22bc:	d8000615 	stw	zero,24(sp)
    22c0:	003fde06 	br	223c <log10+0xd0>
    22c4:	00047840 	call	4784 <__errno>
    22c8:	00c00844 	movi	r3,33
    22cc:	10c00015 	stw	r3,0(r2)
    22d0:	003ff206 	br	229c <log10+0x130>
    22d4:	00047840 	call	4784 <__errno>
    22d8:	00c00884 	movi	r3,34
    22dc:	10c00015 	stw	r3,0(r2)
    22e0:	003fe206 	br	226c <log10+0x100>
    22e4:	00047840 	call	4784 <__errno>
    22e8:	d8c00817 	ldw	r3,32(sp)
    22ec:	10c00015 	stw	r3,0(r2)
    22f0:	003fe006 	br	2274 <log10+0x108>

000022f4 <sqrt>:
    22f4:	defff104 	addi	sp,sp,-60
    22f8:	dd000d15 	stw	r20,52(sp)
    22fc:	050000b4 	movhi	r20,2
    2300:	a526e404 	addi	r20,r20,-25712
    2304:	dcc00c15 	stw	r19,48(sp)
    2308:	dc800b15 	stw	r18,44(sp)
    230c:	dc400a15 	stw	r17,40(sp)
    2310:	dc000915 	stw	r16,36(sp)
    2314:	2025883a 	mov	r18,r4
    2318:	dfc00e15 	stw	ra,56(sp)
    231c:	2827883a 	mov	r19,r5
    2320:	000263c0 	call	263c <__ieee754_sqrt>
    2324:	a1000017 	ldw	r4,0(r20)
    2328:	1021883a 	mov	r16,r2
    232c:	00bfffc4 	movi	r2,-1
    2330:	1823883a 	mov	r17,r3
    2334:	20800a26 	beq	r4,r2,2360 <sqrt+0x6c>
    2338:	9009883a 	mov	r4,r18
    233c:	980b883a 	mov	r5,r19
    2340:	00029040 	call	2904 <__isnand>
    2344:	1000061e 	bne	r2,zero,2360 <sqrt+0x6c>
    2348:	000d883a 	mov	r6,zero
    234c:	000f883a 	mov	r7,zero
    2350:	9009883a 	mov	r4,r18
    2354:	980b883a 	mov	r5,r19
    2358:	0003e500 	call	3e50 <__ltdf2>
    235c:	10000a16 	blt	r2,zero,2388 <sqrt+0x94>
    2360:	8005883a 	mov	r2,r16
    2364:	8807883a 	mov	r3,r17
    2368:	dfc00e17 	ldw	ra,56(sp)
    236c:	dd000d17 	ldw	r20,52(sp)
    2370:	dcc00c17 	ldw	r19,48(sp)
    2374:	dc800b17 	ldw	r18,44(sp)
    2378:	dc400a17 	ldw	r17,40(sp)
    237c:	dc000917 	ldw	r16,36(sp)
    2380:	dec00f04 	addi	sp,sp,60
    2384:	f800283a 	ret
    2388:	a4000017 	ldw	r16,0(r20)
    238c:	00800044 	movi	r2,1
    2390:	00c00074 	movhi	r3,1
    2394:	18fdf204 	addi	r3,r3,-2104
    2398:	d8800015 	stw	r2,0(sp)
    239c:	d8c00115 	stw	r3,4(sp)
    23a0:	dcc00315 	stw	r19,12(sp)
    23a4:	d8000815 	stw	zero,32(sp)
    23a8:	dc800415 	stw	r18,16(sp)
    23ac:	dcc00515 	stw	r19,20(sp)
    23b0:	dc800215 	stw	r18,8(sp)
    23b4:	80000a1e 	bne	r16,zero,23e0 <sqrt+0xec>
    23b8:	d8000615 	stw	zero,24(sp)
    23bc:	d8000715 	stw	zero,28(sp)
    23c0:	d809883a 	mov	r4,sp
    23c4:	00029340 	call	2934 <matherr>
    23c8:	10000e26 	beq	r2,zero,2404 <sqrt+0x110>
    23cc:	d8800817 	ldw	r2,32(sp)
    23d0:	1000101e 	bne	r2,zero,2414 <sqrt+0x120>
    23d4:	dc000617 	ldw	r16,24(sp)
    23d8:	dc400717 	ldw	r17,28(sp)
    23dc:	003fe006 	br	2360 <sqrt+0x6c>
    23e0:	0009883a 	mov	r4,zero
    23e4:	000d883a 	mov	r6,zero
    23e8:	000b883a 	mov	r5,zero
    23ec:	000f883a 	mov	r7,zero
    23f0:	0003a600 	call	3a60 <__divdf3>
    23f4:	d8800615 	stw	r2,24(sp)
    23f8:	00800084 	movi	r2,2
    23fc:	d8c00715 	stw	r3,28(sp)
    2400:	80bfef1e 	bne	r16,r2,23c0 <sqrt+0xcc>
    2404:	00047840 	call	4784 <__errno>
    2408:	00c00844 	movi	r3,33
    240c:	10c00015 	stw	r3,0(r2)
    2410:	003fee06 	br	23cc <sqrt+0xd8>
    2414:	00047840 	call	4784 <__errno>
    2418:	d8c00817 	ldw	r3,32(sp)
    241c:	10c00015 	stw	r3,0(r2)
    2420:	003fec06 	br	23d4 <sqrt+0xe0>

00002424 <__ieee754_log10>:
    2424:	defff904 	addi	sp,sp,-28
    2428:	dc400115 	stw	r17,4(sp)
    242c:	2023883a 	mov	r17,r4
    2430:	01000434 	movhi	r4,16
    2434:	213fffc4 	addi	r4,r4,-1
    2438:	dd000415 	stw	r20,16(sp)
    243c:	dc800215 	stw	r18,8(sp)
    2440:	dfc00615 	stw	ra,24(sp)
    2444:	dd400515 	stw	r21,20(sp)
    2448:	dcc00315 	stw	r19,12(sp)
    244c:	dc000015 	stw	r16,0(sp)
    2450:	2825883a 	mov	r18,r5
    2454:	2829883a 	mov	r20,r5
    2458:	2140160e 	bge	r4,r5,24b4 <__ieee754_log10+0x90>
    245c:	009ffc34 	movhi	r2,32752
    2460:	10bfffc4 	addi	r2,r2,-1
    2464:	000b883a 	mov	r5,zero
    2468:	15002e0e 	bge	r2,r20,2524 <__ieee754_log10+0x100>
    246c:	900f883a 	mov	r7,r18
    2470:	8809883a 	mov	r4,r17
    2474:	900b883a 	mov	r5,r18
    2478:	880d883a 	mov	r6,r17
    247c:	00036280 	call	3628 <__adddf3>
    2480:	100d883a 	mov	r6,r2
    2484:	180f883a 	mov	r7,r3
    2488:	3005883a 	mov	r2,r6
    248c:	3807883a 	mov	r3,r7
    2490:	dfc00617 	ldw	ra,24(sp)
    2494:	dd400517 	ldw	r21,20(sp)
    2498:	dd000417 	ldw	r20,16(sp)
    249c:	dcc00317 	ldw	r19,12(sp)
    24a0:	dc800217 	ldw	r18,8(sp)
    24a4:	dc400117 	ldw	r17,4(sp)
    24a8:	dc000017 	ldw	r16,0(sp)
    24ac:	dec00704 	addi	sp,sp,28
    24b0:	f800283a 	ret
    24b4:	00a00034 	movhi	r2,32768
    24b8:	10bfffc4 	addi	r2,r2,-1
    24bc:	2884703a 	and	r2,r5,r2
    24c0:	8884b03a 	or	r2,r17,r2
    24c4:	1000091e 	bne	r2,zero,24ec <__ieee754_log10+0xc8>
    24c8:	00f0d434 	movhi	r3,50000
    24cc:	000d883a 	mov	r6,zero
    24d0:	000f883a 	mov	r7,zero
    24d4:	180b883a 	mov	r5,r3
    24d8:	1009883a 	mov	r4,r2
    24dc:	0003a600 	call	3a60 <__divdf3>
    24e0:	100d883a 	mov	r6,r2
    24e4:	180f883a 	mov	r7,r3
    24e8:	003fe706 	br	2488 <__ieee754_log10+0x64>
    24ec:	28004a16 	blt	r5,zero,2618 <__ieee754_log10+0x1f4>
    24f0:	0005883a 	mov	r2,zero
    24f4:	00d0d434 	movhi	r3,17232
    24f8:	8809883a 	mov	r4,r17
    24fc:	180f883a 	mov	r7,r3
    2500:	100d883a 	mov	r6,r2
    2504:	000369c0 	call	369c <__muldf3>
    2508:	1023883a 	mov	r17,r2
    250c:	1829883a 	mov	r20,r3
    2510:	009ffc34 	movhi	r2,32752
    2514:	10bfffc4 	addi	r2,r2,-1
    2518:	1825883a 	mov	r18,r3
    251c:	017ff284 	movi	r5,-54
    2520:	153fd216 	blt	r2,r20,246c <__ieee754_log10+0x48>
    2524:	a009d53a 	srai	r4,r20,20
    2528:	2909883a 	add	r4,r5,r4
    252c:	213f0044 	addi	r4,r4,-1023
    2530:	2020d7fa 	srli	r16,r4,31
    2534:	2409883a 	add	r4,r4,r16
    2538:	0003f600 	call	3f60 <__floatsidf>
    253c:	0180ffc4 	movi	r6,1023
    2540:	340dc83a 	sub	r6,r6,r16
    2544:	300c953a 	slli	r6,r6,20
    2548:	02000434 	movhi	r8,16
    254c:	423fffc4 	addi	r8,r8,-1
    2550:	a210703a 	and	r8,r20,r8
    2554:	4190b03a 	or	r8,r8,r6
    2558:	8809883a 	mov	r4,r17
    255c:	400b883a 	mov	r5,r8
    2560:	1025883a 	mov	r18,r2
    2564:	1827883a 	mov	r19,r3
    2568:	000294c0 	call	294c <__ieee754_log>
    256c:	02047c74 	movhi	r8,4593
    2570:	420acd84 	addi	r8,r8,11062
    2574:	024f56b4 	movhi	r9,15706
    2578:	4a7fbcc4 	addi	r9,r9,-269
    257c:	480f883a 	mov	r7,r9
    2580:	400d883a 	mov	r6,r8
    2584:	9009883a 	mov	r4,r18
    2588:	980b883a 	mov	r5,r19
    258c:	1021883a 	mov	r16,r2
    2590:	1823883a 	mov	r17,r3
    2594:	000369c0 	call	369c <__muldf3>
    2598:	020549f4 	movhi	r8,5415
    259c:	42394384 	addi	r8,r8,-6898
    25a0:	024ff734 	movhi	r9,16348
    25a4:	4a72dec4 	addi	r9,r9,-13445
    25a8:	480f883a 	mov	r7,r9
    25ac:	400d883a 	mov	r6,r8
    25b0:	880b883a 	mov	r5,r17
    25b4:	8009883a 	mov	r4,r16
    25b8:	1823883a 	mov	r17,r3
    25bc:	1021883a 	mov	r16,r2
    25c0:	000369c0 	call	369c <__muldf3>
    25c4:	180f883a 	mov	r7,r3
    25c8:	880b883a 	mov	r5,r17
    25cc:	8009883a 	mov	r4,r16
    25d0:	100d883a 	mov	r6,r2
    25d4:	00036280 	call	3628 <__adddf3>
    25d8:	021427f4 	movhi	r8,20639
    25dc:	42180004 	addi	r8,r8,24576
    25e0:	024ff4f4 	movhi	r9,16339
    25e4:	4a5104c4 	addi	r9,r9,17427
    25e8:	9009883a 	mov	r4,r18
    25ec:	980b883a 	mov	r5,r19
    25f0:	480f883a 	mov	r7,r9
    25f4:	400d883a 	mov	r6,r8
    25f8:	1021883a 	mov	r16,r2
    25fc:	1823883a 	mov	r17,r3
    2600:	000369c0 	call	369c <__muldf3>
    2604:	180f883a 	mov	r7,r3
    2608:	880b883a 	mov	r5,r17
    260c:	8009883a 	mov	r4,r16
    2610:	100d883a 	mov	r6,r2
    2614:	003f9906 	br	247c <__ieee754_log10+0x58>
    2618:	280f883a 	mov	r7,r5
    261c:	8809883a 	mov	r4,r17
    2620:	880d883a 	mov	r6,r17
    2624:	00035a80 	call	35a8 <__subdf3>
    2628:	180b883a 	mov	r5,r3
    262c:	000d883a 	mov	r6,zero
    2630:	000f883a 	mov	r7,zero
    2634:	1009883a 	mov	r4,r2
    2638:	003fa806 	br	24dc <__ieee754_log10+0xb8>

0000263c <__ieee754_sqrt>:
    263c:	defffd04 	addi	sp,sp,-12
    2640:	dc000015 	stw	r16,0(sp)
    2644:	009ffc34 	movhi	r2,32752
    2648:	2021883a 	mov	r16,r4
    264c:	291ffc2c 	andhi	r4,r5,32752
    2650:	dc400115 	stw	r17,4(sp)
    2654:	dfc00215 	stw	ra,8(sp)
    2658:	2823883a 	mov	r17,r5
    265c:	280f883a 	mov	r7,r5
    2660:	2807883a 	mov	r3,r5
    2664:	8011883a 	mov	r8,r16
    2668:	20807d26 	beq	r4,r2,2860 <__ieee754_sqrt+0x224>
    266c:	01408d0e 	bge	zero,r5,28a4 <__ieee754_sqrt+0x268>
    2670:	380dd53a 	srai	r6,r7,20
    2674:	3000131e 	bne	r6,zero,26c4 <__ieee754_sqrt+0x88>
    2678:	1800041e 	bne	r3,zero,268c <__ieee754_sqrt+0x50>
    267c:	400ed2fa 	srli	r7,r8,11
    2680:	31bffac4 	addi	r6,r6,-21
    2684:	4010957a 	slli	r8,r8,21
    2688:	383ffc26 	beq	r7,zero,267c <__ieee754_sqrt+0x40>
    268c:	3880042c 	andhi	r2,r7,16
    2690:	1000991e 	bne	r2,zero,28f8 <__ieee754_sqrt+0x2bc>
    2694:	0009883a 	mov	r4,zero
    2698:	39cf883a 	add	r7,r7,r7
    269c:	3880042c 	andhi	r2,r7,16
    26a0:	21000044 	addi	r4,r4,1
    26a4:	103ffc26 	beq	r2,zero,2698 <__ieee754_sqrt+0x5c>
    26a8:	00800804 	movi	r2,32
    26ac:	1105c83a 	sub	r2,r2,r4
    26b0:	4086d83a 	srl	r3,r8,r2
    26b4:	4110983a 	sll	r8,r8,r4
    26b8:	3105c83a 	sub	r2,r6,r4
    26bc:	38ceb03a 	or	r7,r7,r3
    26c0:	11800044 	addi	r6,r2,1
    26c4:	31bf0044 	addi	r6,r6,-1023
    26c8:	30c0004c 	andi	r3,r6,1
    26cc:	00800434 	movhi	r2,16
    26d0:	10bfffc4 	addi	r2,r2,-1
    26d4:	3884703a 	and	r2,r7,r2
    26d8:	1807003a 	cmpeq	r3,r3,zero
    26dc:	11000434 	orhi	r4,r2,16
    26e0:	18005426 	beq	r3,zero,2834 <__ieee754_sqrt+0x1f8>
    26e4:	4004d7fa 	srli	r2,r8,31
    26e8:	4207883a 	add	r3,r8,r8
    26ec:	02800834 	movhi	r10,32
    26f0:	1105883a 	add	r2,r2,r4
    26f4:	2089883a 	add	r4,r4,r2
    26f8:	0011883a 	mov	r8,zero
    26fc:	000b883a 	mov	r5,zero
    2700:	0013883a 	mov	r9,zero
    2704:	02c00584 	movi	r11,22
    2708:	520f883a 	add	r7,r10,r8
    270c:	1804d7fa 	srli	r2,r3,31
    2710:	4a400044 	addi	r9,r9,1
    2714:	18c7883a 	add	r3,r3,r3
    2718:	21c00316 	blt	r4,r7,2728 <__ieee754_sqrt+0xec>
    271c:	21c9c83a 	sub	r4,r4,r7
    2720:	2a8b883a 	add	r5,r5,r10
    2724:	51d1883a 	add	r8,r10,r7
    2728:	1105883a 	add	r2,r2,r4
    272c:	5014d07a 	srli	r10,r10,1
    2730:	2089883a 	add	r4,r4,r2
    2734:	4afff41e 	bne	r9,r11,2708 <__ieee754_sqrt+0xcc>
    2738:	02600034 	movhi	r9,32768
    273c:	0017883a 	mov	r11,zero
    2740:	0019883a 	mov	r12,zero
    2744:	0015883a 	mov	r10,zero
    2748:	4821883a 	mov	r16,r9
    274c:	03c00804 	movi	r15,32
    2750:	00000806 	br	2774 <__ieee754_sqrt+0x138>
    2754:	22003426 	beq	r4,r8,2828 <__ieee754_sqrt+0x1ec>
    2758:	1804d7fa 	srli	r2,r3,31
    275c:	52800044 	addi	r10,r10,1
    2760:	18c7883a 	add	r3,r3,r3
    2764:	1105883a 	add	r2,r2,r4
    2768:	2089883a 	add	r4,r4,r2
    276c:	4812d07a 	srli	r9,r9,1
    2770:	53c01326 	beq	r10,r15,27c0 <__ieee754_sqrt+0x184>
    2774:	4acf883a 	add	r7,r9,r11
    2778:	413ff60e 	bge	r8,r4,2754 <__ieee754_sqrt+0x118>
    277c:	38a0002c 	andhi	r2,r7,32768
    2780:	3a57883a 	add	r11,r7,r9
    2784:	14002426 	beq	r2,r16,2818 <__ieee754_sqrt+0x1dc>
    2788:	4005883a 	mov	r2,r8
    278c:	2209c83a 	sub	r4,r4,r8
    2790:	19c0012e 	bgeu	r3,r7,2798 <__ieee754_sqrt+0x15c>
    2794:	213fffc4 	addi	r4,r4,-1
    2798:	19c7c83a 	sub	r3,r3,r7
    279c:	1011883a 	mov	r8,r2
    27a0:	1804d7fa 	srli	r2,r3,31
    27a4:	52800044 	addi	r10,r10,1
    27a8:	6259883a 	add	r12,r12,r9
    27ac:	1105883a 	add	r2,r2,r4
    27b0:	18c7883a 	add	r3,r3,r3
    27b4:	2089883a 	add	r4,r4,r2
    27b8:	4812d07a 	srli	r9,r9,1
    27bc:	53ffed1e 	bne	r10,r15,2774 <__ieee754_sqrt+0x138>
    27c0:	20c4b03a 	or	r2,r4,r3
    27c4:	1000201e 	bne	r2,zero,2848 <__ieee754_sqrt+0x20c>
    27c8:	600ed07a 	srli	r7,r12,1
    27cc:	2880004c 	andi	r2,r5,1
    27d0:	1005003a 	cmpeq	r2,r2,zero
    27d4:	1000011e 	bne	r2,zero,27dc <__ieee754_sqrt+0x1a0>
    27d8:	39e00034 	orhi	r7,r7,32768
    27dc:	300dd07a 	srai	r6,r6,1
    27e0:	280bd07a 	srai	r5,r5,1
    27e4:	010ff834 	movhi	r4,16352
    27e8:	300c953a 	slli	r6,r6,20
    27ec:	290b883a 	add	r5,r5,r4
    27f0:	3821883a 	mov	r16,r7
    27f4:	299d883a 	add	r14,r5,r6
    27f8:	7023883a 	mov	r17,r14
    27fc:	8005883a 	mov	r2,r16
    2800:	8807883a 	mov	r3,r17
    2804:	dfc00217 	ldw	ra,8(sp)
    2808:	dc400117 	ldw	r17,4(sp)
    280c:	dc000017 	ldw	r16,0(sp)
    2810:	dec00304 	addi	sp,sp,12
    2814:	f800283a 	ret
    2818:	5884703a 	and	r2,r11,r2
    281c:	103fda1e 	bne	r2,zero,2788 <__ieee754_sqrt+0x14c>
    2820:	40800044 	addi	r2,r8,1
    2824:	003fd906 	br	278c <__ieee754_sqrt+0x150>
    2828:	19ffd42e 	bgeu	r3,r7,277c <__ieee754_sqrt+0x140>
    282c:	2011883a 	mov	r8,r4
    2830:	003fc906 	br	2758 <__ieee754_sqrt+0x11c>
    2834:	4004d7fa 	srli	r2,r8,31
    2838:	4211883a 	add	r8,r8,r8
    283c:	1105883a 	add	r2,r2,r4
    2840:	2089883a 	add	r4,r4,r2
    2844:	003fa706 	br	26e4 <__ieee754_sqrt+0xa8>
    2848:	00bfffc4 	movi	r2,-1
    284c:	60802726 	beq	r12,r2,28ec <__ieee754_sqrt+0x2b0>
    2850:	6080004c 	andi	r2,r12,1
    2854:	6085883a 	add	r2,r12,r2
    2858:	100ed07a 	srli	r7,r2,1
    285c:	003fdb06 	br	27cc <__ieee754_sqrt+0x190>
    2860:	8009883a 	mov	r4,r16
    2864:	800d883a 	mov	r6,r16
    2868:	000369c0 	call	369c <__muldf3>
    286c:	180f883a 	mov	r7,r3
    2870:	880b883a 	mov	r5,r17
    2874:	8009883a 	mov	r4,r16
    2878:	100d883a 	mov	r6,r2
    287c:	00036280 	call	3628 <__adddf3>
    2880:	1021883a 	mov	r16,r2
    2884:	1823883a 	mov	r17,r3
    2888:	8005883a 	mov	r2,r16
    288c:	8807883a 	mov	r3,r17
    2890:	dfc00217 	ldw	ra,8(sp)
    2894:	dc400117 	ldw	r17,4(sp)
    2898:	dc000017 	ldw	r16,0(sp)
    289c:	dec00304 	addi	sp,sp,12
    28a0:	f800283a 	ret
    28a4:	00a00034 	movhi	r2,32768
    28a8:	10bfffc4 	addi	r2,r2,-1
    28ac:	2884703a 	and	r2,r5,r2
    28b0:	8084b03a 	or	r2,r16,r2
    28b4:	103fd126 	beq	r2,zero,27fc <__ieee754_sqrt+0x1c0>
    28b8:	283f6d26 	beq	r5,zero,2670 <__ieee754_sqrt+0x34>
    28bc:	280f883a 	mov	r7,r5
    28c0:	8009883a 	mov	r4,r16
    28c4:	800d883a 	mov	r6,r16
    28c8:	00035a80 	call	35a8 <__subdf3>
    28cc:	1009883a 	mov	r4,r2
    28d0:	180b883a 	mov	r5,r3
    28d4:	100d883a 	mov	r6,r2
    28d8:	180f883a 	mov	r7,r3
    28dc:	0003a600 	call	3a60 <__divdf3>
    28e0:	1021883a 	mov	r16,r2
    28e4:	1823883a 	mov	r17,r3
    28e8:	003fc406 	br	27fc <__ieee754_sqrt+0x1c0>
    28ec:	29400044 	addi	r5,r5,1
    28f0:	000f883a 	mov	r7,zero
    28f4:	003fb506 	br	27cc <__ieee754_sqrt+0x190>
    28f8:	0009883a 	mov	r4,zero
    28fc:	00800804 	movi	r2,32
    2900:	003f6b06 	br	26b0 <__ieee754_sqrt+0x74>

00002904 <__isnand>:
    2904:	200d883a 	mov	r6,r4
    2908:	0109c83a 	sub	r4,zero,r4
    290c:	2188b03a 	or	r4,r4,r6
    2910:	2008d7fa 	srli	r4,r4,31
    2914:	00a00034 	movhi	r2,32768
    2918:	10bfffc4 	addi	r2,r2,-1
    291c:	1144703a 	and	r2,r2,r5
    2920:	2088b03a 	or	r4,r4,r2
    2924:	009ffc34 	movhi	r2,32752
    2928:	1105c83a 	sub	r2,r2,r4
    292c:	1004d7fa 	srli	r2,r2,31
    2930:	f800283a 	ret

00002934 <matherr>:
    2934:	0005883a 	mov	r2,zero
    2938:	f800283a 	ret

0000293c <nan>:
    293c:	015ffe34 	movhi	r5,32760
    2940:	0005883a 	mov	r2,zero
    2944:	2807883a 	mov	r3,r5
    2948:	f800283a 	ret

0000294c <__ieee754_log>:
    294c:	deffe604 	addi	sp,sp,-104
    2950:	2015883a 	mov	r10,r4
    2954:	01000434 	movhi	r4,16
    2958:	213fffc4 	addi	r4,r4,-1
    295c:	dfc01915 	stw	ra,100(sp)
    2960:	df001815 	stw	fp,96(sp)
    2964:	ddc01715 	stw	r23,92(sp)
    2968:	dd801615 	stw	r22,88(sp)
    296c:	dd401515 	stw	r21,84(sp)
    2970:	dd001415 	stw	r20,80(sp)
    2974:	dcc01315 	stw	r19,76(sp)
    2978:	dc801215 	stw	r18,72(sp)
    297c:	dc401115 	stw	r17,68(sp)
    2980:	dc001015 	stw	r16,64(sp)
    2984:	2817883a 	mov	r11,r5
    2988:	2813883a 	mov	r9,r5
    298c:	2140190e 	bge	r4,r5,29f4 <__ieee754_log+0xa8>
    2990:	000d883a 	mov	r6,zero
    2994:	009ffc34 	movhi	r2,32752
    2998:	10bfffc4 	addi	r2,r2,-1
    299c:	1240230e 	bge	r2,r9,2a2c <__ieee754_log+0xe0>
    29a0:	580f883a 	mov	r7,r11
    29a4:	5009883a 	mov	r4,r10
    29a8:	580b883a 	mov	r5,r11
    29ac:	500d883a 	mov	r6,r10
    29b0:	00036280 	call	3628 <__adddf3>
    29b4:	100d883a 	mov	r6,r2
    29b8:	180f883a 	mov	r7,r3
    29bc:	3005883a 	mov	r2,r6
    29c0:	3807883a 	mov	r3,r7
    29c4:	dfc01917 	ldw	ra,100(sp)
    29c8:	df001817 	ldw	fp,96(sp)
    29cc:	ddc01717 	ldw	r23,92(sp)
    29d0:	dd801617 	ldw	r22,88(sp)
    29d4:	dd401517 	ldw	r21,84(sp)
    29d8:	dd001417 	ldw	r20,80(sp)
    29dc:	dcc01317 	ldw	r19,76(sp)
    29e0:	dc801217 	ldw	r18,72(sp)
    29e4:	dc401117 	ldw	r17,68(sp)
    29e8:	dc001017 	ldw	r16,64(sp)
    29ec:	dec01a04 	addi	sp,sp,104
    29f0:	f800283a 	ret
    29f4:	00a00034 	movhi	r2,32768
    29f8:	10bfffc4 	addi	r2,r2,-1
    29fc:	2884703a 	and	r2,r5,r2
    2a00:	5084b03a 	or	r2,r10,r2
    2a04:	1000e31e 	bne	r2,zero,2d94 <__ieee754_log+0x448>
    2a08:	00f0d434 	movhi	r3,50000
    2a0c:	000d883a 	mov	r6,zero
    2a10:	000f883a 	mov	r7,zero
    2a14:	180b883a 	mov	r5,r3
    2a18:	1009883a 	mov	r4,r2
    2a1c:	0003a600 	call	3a60 <__divdf3>
    2a20:	100d883a 	mov	r6,r2
    2a24:	180f883a 	mov	r7,r3
    2a28:	003fe406 	br	29bc <__ieee754_log+0x70>
    2a2c:	04000434 	movhi	r16,16
    2a30:	843fffc4 	addi	r16,r16,-1
    2a34:	4c38703a 	and	fp,r9,r16
    2a38:	02000274 	movhi	r8,9
    2a3c:	4217d904 	addi	r8,r8,24420
    2a40:	e211883a 	add	r8,fp,r8
    2a44:	4813d53a 	srai	r9,r9,20
    2a48:	4200042c 	andhi	r8,r8,16
    2a4c:	41cffc3c 	xorhi	r7,r8,16368
    2a50:	4011d53a 	srai	r8,r8,20
    2a54:	3253883a 	add	r9,r6,r9
    2a58:	e1ceb03a 	or	r7,fp,r7
    2a5c:	0005883a 	mov	r2,zero
    2a60:	00cffc34 	movhi	r3,16368
    2a64:	4a7f0044 	addi	r9,r9,-1023
    2a68:	5009883a 	mov	r4,r10
    2a6c:	380b883a 	mov	r5,r7
    2a70:	4a13883a 	add	r9,r9,r8
    2a74:	180f883a 	mov	r7,r3
    2a78:	100d883a 	mov	r6,r2
    2a7c:	da400015 	stw	r9,0(sp)
    2a80:	00035a80 	call	35a8 <__subdf3>
    2a84:	d8c00b15 	stw	r3,44(sp)
    2a88:	d9000b17 	ldw	r4,44(sp)
    2a8c:	e0c00084 	addi	r3,fp,2
    2a90:	d8800a15 	stw	r2,40(sp)
    2a94:	d8800815 	stw	r2,32(sp)
    2a98:	1c06703a 	and	r3,r3,r16
    2a9c:	00800084 	movi	r2,2
    2aa0:	d9000915 	stw	r4,36(sp)
    2aa4:	10c0c70e 	bge	r2,r3,2dc4 <__ieee754_log+0x478>
    2aa8:	d9000817 	ldw	r4,32(sp)
    2aac:	d9400b17 	ldw	r5,44(sp)
    2ab0:	0005883a 	mov	r2,zero
    2ab4:	00d00034 	movhi	r3,16384
    2ab8:	180f883a 	mov	r7,r3
    2abc:	100d883a 	mov	r6,r2
    2ac0:	00036280 	call	3628 <__adddf3>
    2ac4:	d9400b17 	ldw	r5,44(sp)
    2ac8:	d9000817 	ldw	r4,32(sp)
    2acc:	180f883a 	mov	r7,r3
    2ad0:	100d883a 	mov	r6,r2
    2ad4:	0003a600 	call	3a60 <__divdf3>
    2ad8:	d9000017 	ldw	r4,0(sp)
    2adc:	d8800c15 	stw	r2,48(sp)
    2ae0:	d8c00d15 	stw	r3,52(sp)
    2ae4:	d8800615 	stw	r2,24(sp)
    2ae8:	0003f600 	call	3f60 <__floatsidf>
    2aec:	d9000d17 	ldw	r4,52(sp)
    2af0:	d9400d17 	ldw	r5,52(sp)
    2af4:	d8800e15 	stw	r2,56(sp)
    2af8:	d9000715 	stw	r4,28(sp)
    2afc:	d9000617 	ldw	r4,24(sp)
    2b00:	280f883a 	mov	r7,r5
    2b04:	d8c00f15 	stw	r3,60(sp)
    2b08:	200d883a 	mov	r6,r4
    2b0c:	000369c0 	call	369c <__muldf3>
    2b10:	1009883a 	mov	r4,r2
    2b14:	100d883a 	mov	r6,r2
    2b18:	d8800415 	stw	r2,16(sp)
    2b1c:	00bffeb4 	movhi	r2,65530
    2b20:	10bae184 	addi	r2,r2,-5242
    2b24:	180b883a 	mov	r5,r3
    2b28:	180f883a 	mov	r7,r3
    2b2c:	e085883a 	add	r2,fp,r2
    2b30:	182b883a 	mov	r21,r3
    2b34:	d8c00515 	stw	r3,20(sp)
    2b38:	d8800115 	stw	r2,4(sp)
    2b3c:	000369c0 	call	369c <__muldf3>
    2b40:	1021883a 	mov	r16,r2
    2b44:	1823883a 	mov	r17,r3
    2b48:	00b41e74 	movhi	r2,53369
    2b4c:	10b1a7c4 	addi	r2,r2,-14689
    2b50:	00cff134 	movhi	r3,16324
    2b54:	18e68244 	addi	r3,r3,-26103
    2b58:	8009883a 	mov	r4,r16
    2b5c:	880b883a 	mov	r5,r17
    2b60:	180f883a 	mov	r7,r3
    2b64:	100d883a 	mov	r6,r2
    2b68:	000369c0 	call	369c <__muldf3>
    2b6c:	020763b4 	movhi	r8,7566
    2b70:	421e2bc4 	addi	r8,r8,30895
    2b74:	024ff334 	movhi	r9,16332
    2b78:	4a5c7144 	addi	r9,r9,29125
    2b7c:	480f883a 	mov	r7,r9
    2b80:	400d883a 	mov	r6,r8
    2b84:	180b883a 	mov	r5,r3
    2b88:	1009883a 	mov	r4,r2
    2b8c:	00036280 	call	3628 <__adddf3>
    2b90:	180f883a 	mov	r7,r3
    2b94:	8009883a 	mov	r4,r16
    2b98:	880b883a 	mov	r5,r17
    2b9c:	100d883a 	mov	r6,r2
    2ba0:	000369c0 	call	369c <__muldf3>
    2ba4:	02266634 	movhi	r8,39320
    2ba8:	423e8104 	addi	r8,r8,-1532
    2bac:	024ff6b4 	movhi	r9,16346
    2bb0:	4a666644 	addi	r9,r9,-26215
    2bb4:	480f883a 	mov	r7,r9
    2bb8:	400d883a 	mov	r6,r8
    2bbc:	180b883a 	mov	r5,r3
    2bc0:	1009883a 	mov	r4,r2
    2bc4:	00036280 	call	3628 <__adddf3>
    2bc8:	180f883a 	mov	r7,r3
    2bcc:	8009883a 	mov	r4,r16
    2bd0:	880b883a 	mov	r5,r17
    2bd4:	100d883a 	mov	r6,r2
    2bd8:	000369c0 	call	369c <__muldf3>
    2bdc:	0237cfb4 	movhi	r8,57150
    2be0:	42149104 	addi	r8,r8,21060
    2be4:	024ff0f4 	movhi	r9,16323
    2be8:	4a7c4484 	addi	r9,r9,-3822
    2bec:	480f883a 	mov	r7,r9
    2bf0:	8009883a 	mov	r4,r16
    2bf4:	880b883a 	mov	r5,r17
    2bf8:	400d883a 	mov	r6,r8
    2bfc:	102d883a 	mov	r22,r2
    2c00:	182f883a 	mov	r23,r3
    2c04:	000369c0 	call	369c <__muldf3>
    2c08:	0225b2f4 	movhi	r8,38603
    2c0c:	4200f784 	addi	r8,r8,990
    2c10:	024ff1f4 	movhi	r9,16327
    2c14:	4a519904 	addi	r9,r9,18020
    2c18:	480f883a 	mov	r7,r9
    2c1c:	400d883a 	mov	r6,r8
    2c20:	180b883a 	mov	r5,r3
    2c24:	1009883a 	mov	r4,r2
    2c28:	00036280 	call	3628 <__adddf3>
    2c2c:	180f883a 	mov	r7,r3
    2c30:	8009883a 	mov	r4,r16
    2c34:	880b883a 	mov	r5,r17
    2c38:	100d883a 	mov	r6,r2
    2c3c:	000369c0 	call	369c <__muldf3>
    2c40:	022508f4 	movhi	r8,37923
    2c44:	4224d644 	addi	r8,r8,-27815
    2c48:	024ff4b4 	movhi	r9,16338
    2c4c:	4a524904 	addi	r9,r9,18724
    2c50:	480f883a 	mov	r7,r9
    2c54:	400d883a 	mov	r6,r8
    2c58:	180b883a 	mov	r5,r3
    2c5c:	1009883a 	mov	r4,r2
    2c60:	00036280 	call	3628 <__adddf3>
    2c64:	180f883a 	mov	r7,r3
    2c68:	8009883a 	mov	r4,r16
    2c6c:	880b883a 	mov	r5,r17
    2c70:	100d883a 	mov	r6,r2
    2c74:	000369c0 	call	369c <__muldf3>
    2c78:	02155574 	movhi	r8,21845
    2c7c:	421564c4 	addi	r8,r8,21907
    2c80:	024ff974 	movhi	r9,16357
    2c84:	4a555544 	addi	r9,r9,21845
    2c88:	480f883a 	mov	r7,r9
    2c8c:	400d883a 	mov	r6,r8
    2c90:	180b883a 	mov	r5,r3
    2c94:	1009883a 	mov	r4,r2
    2c98:	00036280 	call	3628 <__adddf3>
    2c9c:	d9000417 	ldw	r4,16(sp)
    2ca0:	a80b883a 	mov	r5,r21
    2ca4:	180f883a 	mov	r7,r3
    2ca8:	100d883a 	mov	r6,r2
    2cac:	000369c0 	call	369c <__muldf3>
    2cb0:	180f883a 	mov	r7,r3
    2cb4:	b009883a 	mov	r4,r22
    2cb8:	b80b883a 	mov	r5,r23
    2cbc:	100d883a 	mov	r6,r2
    2cc0:	00036280 	call	3628 <__adddf3>
    2cc4:	d9000117 	ldw	r4,4(sp)
    2cc8:	1021883a 	mov	r16,r2
    2ccc:	008001f4 	movhi	r2,7
    2cd0:	10ae1444 	addi	r2,r2,-18351
    2cd4:	1705c83a 	sub	r2,r2,fp
    2cd8:	1823883a 	mov	r17,r3
    2cdc:	2086b03a 	or	r3,r4,r2
    2ce0:	d8800e17 	ldw	r2,56(sp)
    2ce4:	d9000f17 	ldw	r4,60(sp)
    2ce8:	d8800215 	stw	r2,8(sp)
    2cec:	d9000315 	stw	r4,12(sp)
    2cf0:	00c0df0e 	bge	zero,r3,3070 <__ieee754_log+0x724>
    2cf4:	d9000817 	ldw	r4,32(sp)
    2cf8:	d9400b17 	ldw	r5,44(sp)
    2cfc:	0005883a 	mov	r2,zero
    2d00:	00cff834 	movhi	r3,16352
    2d04:	180f883a 	mov	r7,r3
    2d08:	100d883a 	mov	r6,r2
    2d0c:	000369c0 	call	369c <__muldf3>
    2d10:	d9000817 	ldw	r4,32(sp)
    2d14:	d9400b17 	ldw	r5,44(sp)
    2d18:	180f883a 	mov	r7,r3
    2d1c:	100d883a 	mov	r6,r2
    2d20:	000369c0 	call	369c <__muldf3>
    2d24:	1029883a 	mov	r20,r2
    2d28:	d8800017 	ldw	r2,0(sp)
    2d2c:	182b883a 	mov	r21,r3
    2d30:	1000971e 	bne	r2,zero,2f90 <__ieee754_log+0x644>
    2d34:	8009883a 	mov	r4,r16
    2d38:	880b883a 	mov	r5,r17
    2d3c:	a00d883a 	mov	r6,r20
    2d40:	180f883a 	mov	r7,r3
    2d44:	00036280 	call	3628 <__adddf3>
    2d48:	d9000617 	ldw	r4,24(sp)
    2d4c:	d9400d17 	ldw	r5,52(sp)
    2d50:	180f883a 	mov	r7,r3
    2d54:	100d883a 	mov	r6,r2
    2d58:	000369c0 	call	369c <__muldf3>
    2d5c:	180f883a 	mov	r7,r3
    2d60:	a009883a 	mov	r4,r20
    2d64:	a80b883a 	mov	r5,r21
    2d68:	100d883a 	mov	r6,r2
    2d6c:	00035a80 	call	35a8 <__subdf3>
    2d70:	d9000817 	ldw	r4,32(sp)
    2d74:	d9400b17 	ldw	r5,44(sp)
    2d78:	1011883a 	mov	r8,r2
    2d7c:	180f883a 	mov	r7,r3
    2d80:	400d883a 	mov	r6,r8
    2d84:	00035a80 	call	35a8 <__subdf3>
    2d88:	100d883a 	mov	r6,r2
    2d8c:	180f883a 	mov	r7,r3
    2d90:	003f0a06 	br	29bc <__ieee754_log+0x70>
    2d94:	28002f16 	blt	r5,zero,2e54 <__ieee754_log+0x508>
    2d98:	0005883a 	mov	r2,zero
    2d9c:	00d0d434 	movhi	r3,17232
    2da0:	5009883a 	mov	r4,r10
    2da4:	100d883a 	mov	r6,r2
    2da8:	180f883a 	mov	r7,r3
    2dac:	000369c0 	call	369c <__muldf3>
    2db0:	1015883a 	mov	r10,r2
    2db4:	1813883a 	mov	r9,r3
    2db8:	1817883a 	mov	r11,r3
    2dbc:	01bff284 	movi	r6,-54
    2dc0:	003ef406 	br	2994 <__ieee754_log+0x48>
    2dc4:	d9000817 	ldw	r4,32(sp)
    2dc8:	d9400b17 	ldw	r5,44(sp)
    2dcc:	000d883a 	mov	r6,zero
    2dd0:	000f883a 	mov	r7,zero
    2dd4:	0003cb80 	call	3cb8 <__eqdf2>
    2dd8:	1000271e 	bne	r2,zero,2e78 <__ieee754_log+0x52c>
    2ddc:	d8800017 	ldw	r2,0(sp)
    2de0:	1000b026 	beq	r2,zero,30a4 <__ieee754_log+0x758>
    2de4:	d9000017 	ldw	r4,0(sp)
    2de8:	0003f600 	call	3f60 <__floatsidf>
    2dec:	1021883a 	mov	r16,r2
    2df0:	1823883a 	mov	r17,r3
    2df4:	00bfb834 	movhi	r2,65248
    2df8:	00cff9b4 	movhi	r3,16358
    2dfc:	18cb9084 	addi	r3,r3,11842
    2e00:	8009883a 	mov	r4,r16
    2e04:	880b883a 	mov	r5,r17
    2e08:	180f883a 	mov	r7,r3
    2e0c:	100d883a 	mov	r6,r2
    2e10:	000369c0 	call	369c <__muldf3>
    2e14:	020d5e74 	movhi	r8,13689
    2e18:	420f1d84 	addi	r8,r8,15478
    2e1c:	024f7ab4 	movhi	r9,15850
    2e20:	4a4e7bc4 	addi	r9,r9,14831
    2e24:	8009883a 	mov	r4,r16
    2e28:	880b883a 	mov	r5,r17
    2e2c:	480f883a 	mov	r7,r9
    2e30:	400d883a 	mov	r6,r8
    2e34:	1021883a 	mov	r16,r2
    2e38:	1823883a 	mov	r17,r3
    2e3c:	000369c0 	call	369c <__muldf3>
    2e40:	180f883a 	mov	r7,r3
    2e44:	880b883a 	mov	r5,r17
    2e48:	8009883a 	mov	r4,r16
    2e4c:	100d883a 	mov	r6,r2
    2e50:	003ed706 	br	29b0 <__ieee754_log+0x64>
    2e54:	280f883a 	mov	r7,r5
    2e58:	5009883a 	mov	r4,r10
    2e5c:	500d883a 	mov	r6,r10
    2e60:	00035a80 	call	35a8 <__subdf3>
    2e64:	180b883a 	mov	r5,r3
    2e68:	000d883a 	mov	r6,zero
    2e6c:	000f883a 	mov	r7,zero
    2e70:	1009883a 	mov	r4,r2
    2e74:	003ee906 	br	2a1c <__ieee754_log+0xd0>
    2e78:	d9000817 	ldw	r4,32(sp)
    2e7c:	d9400b17 	ldw	r5,44(sp)
    2e80:	200d883a 	mov	r6,r4
    2e84:	280f883a 	mov	r7,r5
    2e88:	000369c0 	call	369c <__muldf3>
    2e8c:	d9000817 	ldw	r4,32(sp)
    2e90:	d9400b17 	ldw	r5,44(sp)
    2e94:	02155574 	movhi	r8,21845
    2e98:	42155544 	addi	r8,r8,21845
    2e9c:	026ff574 	movhi	r9,49109
    2ea0:	4a555544 	addi	r9,r9,21845
    2ea4:	480f883a 	mov	r7,r9
    2ea8:	400d883a 	mov	r6,r8
    2eac:	1021883a 	mov	r16,r2
    2eb0:	1823883a 	mov	r17,r3
    2eb4:	000369c0 	call	369c <__muldf3>
    2eb8:	0011883a 	mov	r8,zero
    2ebc:	024ff834 	movhi	r9,16352
    2ec0:	480f883a 	mov	r7,r9
    2ec4:	400d883a 	mov	r6,r8
    2ec8:	180b883a 	mov	r5,r3
    2ecc:	1009883a 	mov	r4,r2
    2ed0:	00036280 	call	3628 <__adddf3>
    2ed4:	180f883a 	mov	r7,r3
    2ed8:	8009883a 	mov	r4,r16
    2edc:	880b883a 	mov	r5,r17
    2ee0:	100d883a 	mov	r6,r2
    2ee4:	000369c0 	call	369c <__muldf3>
    2ee8:	d9000017 	ldw	r4,0(sp)
    2eec:	1029883a 	mov	r20,r2
    2ef0:	182b883a 	mov	r21,r3
    2ef4:	20005926 	beq	r4,zero,305c <__ieee754_log+0x710>
    2ef8:	d9000017 	ldw	r4,0(sp)
    2efc:	0003f600 	call	3f60 <__floatsidf>
    2f00:	1021883a 	mov	r16,r2
    2f04:	1823883a 	mov	r17,r3
    2f08:	00bfb834 	movhi	r2,65248
    2f0c:	00cff9b4 	movhi	r3,16358
    2f10:	18cb9084 	addi	r3,r3,11842
    2f14:	8009883a 	mov	r4,r16
    2f18:	880b883a 	mov	r5,r17
    2f1c:	180f883a 	mov	r7,r3
    2f20:	100d883a 	mov	r6,r2
    2f24:	000369c0 	call	369c <__muldf3>
    2f28:	020d5e74 	movhi	r8,13689
    2f2c:	420f1d84 	addi	r8,r8,15478
    2f30:	026f7ab4 	movhi	r9,48618
    2f34:	4a4e7bc4 	addi	r9,r9,14831
    2f38:	400d883a 	mov	r6,r8
    2f3c:	480f883a 	mov	r7,r9
    2f40:	8009883a 	mov	r4,r16
    2f44:	880b883a 	mov	r5,r17
    2f48:	1021883a 	mov	r16,r2
    2f4c:	1823883a 	mov	r17,r3
    2f50:	000369c0 	call	369c <__muldf3>
    2f54:	180f883a 	mov	r7,r3
    2f58:	a009883a 	mov	r4,r20
    2f5c:	a80b883a 	mov	r5,r21
    2f60:	100d883a 	mov	r6,r2
    2f64:	00036280 	call	3628 <__adddf3>
    2f68:	d9c00b17 	ldw	r7,44(sp)
    2f6c:	d9800817 	ldw	r6,32(sp)
    2f70:	180b883a 	mov	r5,r3
    2f74:	1009883a 	mov	r4,r2
    2f78:	00035a80 	call	35a8 <__subdf3>
    2f7c:	1011883a 	mov	r8,r2
    2f80:	880b883a 	mov	r5,r17
    2f84:	180f883a 	mov	r7,r3
    2f88:	8009883a 	mov	r4,r16
    2f8c:	003f7c06 	br	2d80 <__ieee754_log+0x434>
    2f90:	d9000217 	ldw	r4,8(sp)
    2f94:	d9400f17 	ldw	r5,60(sp)
    2f98:	00bfb834 	movhi	r2,65248
    2f9c:	00cff9b4 	movhi	r3,16358
    2fa0:	18cb9084 	addi	r3,r3,11842
    2fa4:	180f883a 	mov	r7,r3
    2fa8:	100d883a 	mov	r6,r2
    2fac:	000369c0 	call	369c <__muldf3>
    2fb0:	8009883a 	mov	r4,r16
    2fb4:	880b883a 	mov	r5,r17
    2fb8:	a00d883a 	mov	r6,r20
    2fbc:	a80f883a 	mov	r7,r21
    2fc0:	1025883a 	mov	r18,r2
    2fc4:	1827883a 	mov	r19,r3
    2fc8:	00036280 	call	3628 <__adddf3>
    2fcc:	d9000617 	ldw	r4,24(sp)
    2fd0:	d9400d17 	ldw	r5,52(sp)
    2fd4:	180f883a 	mov	r7,r3
    2fd8:	100d883a 	mov	r6,r2
    2fdc:	000369c0 	call	369c <__muldf3>
    2fe0:	d9000217 	ldw	r4,8(sp)
    2fe4:	d9400f17 	ldw	r5,60(sp)
    2fe8:	020d5e74 	movhi	r8,13689
    2fec:	420f1d84 	addi	r8,r8,15478
    2ff0:	024f7ab4 	movhi	r9,15850
    2ff4:	4a4e7bc4 	addi	r9,r9,14831
    2ff8:	480f883a 	mov	r7,r9
    2ffc:	400d883a 	mov	r6,r8
    3000:	1021883a 	mov	r16,r2
    3004:	1823883a 	mov	r17,r3
    3008:	000369c0 	call	369c <__muldf3>
    300c:	180f883a 	mov	r7,r3
    3010:	880b883a 	mov	r5,r17
    3014:	8009883a 	mov	r4,r16
    3018:	100d883a 	mov	r6,r2
    301c:	00036280 	call	3628 <__adddf3>
    3020:	180f883a 	mov	r7,r3
    3024:	a009883a 	mov	r4,r20
    3028:	a80b883a 	mov	r5,r21
    302c:	100d883a 	mov	r6,r2
    3030:	00035a80 	call	35a8 <__subdf3>
    3034:	d9c00b17 	ldw	r7,44(sp)
    3038:	d9800817 	ldw	r6,32(sp)
    303c:	180b883a 	mov	r5,r3
    3040:	1009883a 	mov	r4,r2
    3044:	00035a80 	call	35a8 <__subdf3>
    3048:	1011883a 	mov	r8,r2
    304c:	980b883a 	mov	r5,r19
    3050:	180f883a 	mov	r7,r3
    3054:	9009883a 	mov	r4,r18
    3058:	003f4906 	br	2d80 <__ieee754_log+0x434>
    305c:	d9000817 	ldw	r4,32(sp)
    3060:	d9400b17 	ldw	r5,44(sp)
    3064:	100d883a 	mov	r6,r2
    3068:	180f883a 	mov	r7,r3
    306c:	003f4506 	br	2d84 <__ieee754_log+0x438>
    3070:	d9000017 	ldw	r4,0(sp)
    3074:	20000e1e 	bne	r4,zero,30b0 <__ieee754_log+0x764>
    3078:	d9000817 	ldw	r4,32(sp)
    307c:	d9400b17 	ldw	r5,44(sp)
    3080:	800d883a 	mov	r6,r16
    3084:	880f883a 	mov	r7,r17
    3088:	00035a80 	call	35a8 <__subdf3>
    308c:	d9000617 	ldw	r4,24(sp)
    3090:	d9400d17 	ldw	r5,52(sp)
    3094:	180f883a 	mov	r7,r3
    3098:	100d883a 	mov	r6,r2
    309c:	000369c0 	call	369c <__muldf3>
    30a0:	003f3306 	br	2d70 <__ieee754_log+0x424>
    30a4:	000d883a 	mov	r6,zero
    30a8:	000f883a 	mov	r7,zero
    30ac:	003e4306 	br	29bc <__ieee754_log+0x70>
    30b0:	d9000217 	ldw	r4,8(sp)
    30b4:	d9400f17 	ldw	r5,60(sp)
    30b8:	00bfb834 	movhi	r2,65248
    30bc:	00cff9b4 	movhi	r3,16358
    30c0:	18cb9084 	addi	r3,r3,11842
    30c4:	180f883a 	mov	r7,r3
    30c8:	100d883a 	mov	r6,r2
    30cc:	000369c0 	call	369c <__muldf3>
    30d0:	d9000817 	ldw	r4,32(sp)
    30d4:	d9400b17 	ldw	r5,44(sp)
    30d8:	800d883a 	mov	r6,r16
    30dc:	880f883a 	mov	r7,r17
    30e0:	1025883a 	mov	r18,r2
    30e4:	1827883a 	mov	r19,r3
    30e8:	00035a80 	call	35a8 <__subdf3>
    30ec:	d9000617 	ldw	r4,24(sp)
    30f0:	d9400d17 	ldw	r5,52(sp)
    30f4:	180f883a 	mov	r7,r3
    30f8:	100d883a 	mov	r6,r2
    30fc:	000369c0 	call	369c <__muldf3>
    3100:	d9000217 	ldw	r4,8(sp)
    3104:	d9400f17 	ldw	r5,60(sp)
    3108:	020d5e74 	movhi	r8,13689
    310c:	420f1d84 	addi	r8,r8,15478
    3110:	026f7ab4 	movhi	r9,48618
    3114:	4a4e7bc4 	addi	r9,r9,14831
    3118:	480f883a 	mov	r7,r9
    311c:	400d883a 	mov	r6,r8
    3120:	1021883a 	mov	r16,r2
    3124:	1823883a 	mov	r17,r3
    3128:	000369c0 	call	369c <__muldf3>
    312c:	180f883a 	mov	r7,r3
    3130:	880b883a 	mov	r5,r17
    3134:	8009883a 	mov	r4,r16
    3138:	100d883a 	mov	r6,r2
    313c:	00036280 	call	3628 <__adddf3>
    3140:	003fbc06 	br	3034 <__ieee754_log+0x6e8>

00003144 <__extendsfdf2>:
    3144:	defff904 	addi	sp,sp,-28
    3148:	d9000115 	stw	r4,4(sp)
    314c:	d9400204 	addi	r5,sp,8
    3150:	d9000104 	addi	r4,sp,4
    3154:	dfc00615 	stw	ra,24(sp)
    3158:	00041a80 	call	41a8 <__unpack_f>
    315c:	d9c00517 	ldw	r7,20(sp)
    3160:	0011883a 	mov	r8,zero
    3164:	400697ba 	slli	r3,r8,30
    3168:	3812d0ba 	srli	r9,r7,2
    316c:	380497ba 	slli	r2,r7,30
    3170:	d9000217 	ldw	r4,8(sp)
    3174:	d9400317 	ldw	r5,12(sp)
    3178:	d9800417 	ldw	r6,16(sp)
    317c:	48c6b03a 	or	r3,r9,r3
    3180:	100f883a 	mov	r7,r2
    3184:	d8c00015 	stw	r3,0(sp)
    3188:	00040580 	call	4058 <__make_dp>
    318c:	dfc00617 	ldw	ra,24(sp)
    3190:	dec00704 	addi	sp,sp,28
    3194:	f800283a 	ret

00003198 <_fpadd_parts>:
    3198:	defff804 	addi	sp,sp,-32
    319c:	dcc00315 	stw	r19,12(sp)
    31a0:	2027883a 	mov	r19,r4
    31a4:	21000017 	ldw	r4,0(r4)
    31a8:	00c00044 	movi	r3,1
    31ac:	dd400515 	stw	r21,20(sp)
    31b0:	dd000415 	stw	r20,16(sp)
    31b4:	ddc00715 	stw	r23,28(sp)
    31b8:	dd800615 	stw	r22,24(sp)
    31bc:	dc800215 	stw	r18,8(sp)
    31c0:	dc400115 	stw	r17,4(sp)
    31c4:	dc000015 	stw	r16,0(sp)
    31c8:	282b883a 	mov	r21,r5
    31cc:	3029883a 	mov	r20,r6
    31d0:	1900632e 	bgeu	r3,r4,3360 <_fpadd_parts+0x1c8>
    31d4:	28800017 	ldw	r2,0(r5)
    31d8:	1880812e 	bgeu	r3,r2,33e0 <_fpadd_parts+0x248>
    31dc:	00c00104 	movi	r3,4
    31e0:	20c0dc26 	beq	r4,r3,3554 <_fpadd_parts+0x3bc>
    31e4:	10c07e26 	beq	r2,r3,33e0 <_fpadd_parts+0x248>
    31e8:	00c00084 	movi	r3,2
    31ec:	10c06726 	beq	r2,r3,338c <_fpadd_parts+0x1f4>
    31f0:	20c07b26 	beq	r4,r3,33e0 <_fpadd_parts+0x248>
    31f4:	9dc00217 	ldw	r23,8(r19)
    31f8:	28c00217 	ldw	r3,8(r5)
    31fc:	9c400317 	ldw	r17,12(r19)
    3200:	2bc00317 	ldw	r15,12(r5)
    3204:	b8cdc83a 	sub	r6,r23,r3
    3208:	9c800417 	ldw	r18,16(r19)
    320c:	2c000417 	ldw	r16,16(r5)
    3210:	3009883a 	mov	r4,r6
    3214:	30009716 	blt	r6,zero,3474 <_fpadd_parts+0x2dc>
    3218:	00800fc4 	movi	r2,63
    321c:	11806b16 	blt	r2,r6,33cc <_fpadd_parts+0x234>
    3220:	0100a40e 	bge	zero,r4,34b4 <_fpadd_parts+0x31c>
    3224:	35bff804 	addi	r22,r6,-32
    3228:	b000bc16 	blt	r22,zero,351c <_fpadd_parts+0x384>
    322c:	8596d83a 	srl	r11,r16,r22
    3230:	0019883a 	mov	r12,zero
    3234:	0013883a 	mov	r9,zero
    3238:	01000044 	movi	r4,1
    323c:	0015883a 	mov	r10,zero
    3240:	b000be16 	blt	r22,zero,353c <_fpadd_parts+0x3a4>
    3244:	2590983a 	sll	r8,r4,r22
    3248:	000f883a 	mov	r7,zero
    324c:	00bfffc4 	movi	r2,-1
    3250:	3889883a 	add	r4,r7,r2
    3254:	408b883a 	add	r5,r8,r2
    3258:	21cd803a 	cmpltu	r6,r4,r7
    325c:	314b883a 	add	r5,r6,r5
    3260:	7904703a 	and	r2,r15,r4
    3264:	8146703a 	and	r3,r16,r5
    3268:	10c4b03a 	or	r2,r2,r3
    326c:	10000226 	beq	r2,zero,3278 <_fpadd_parts+0xe0>
    3270:	02400044 	movi	r9,1
    3274:	0015883a 	mov	r10,zero
    3278:	5a5eb03a 	or	r15,r11,r9
    327c:	62a0b03a 	or	r16,r12,r10
    3280:	99400117 	ldw	r5,4(r19)
    3284:	a8800117 	ldw	r2,4(r21)
    3288:	28806e26 	beq	r5,r2,3444 <_fpadd_parts+0x2ac>
    328c:	28006626 	beq	r5,zero,3428 <_fpadd_parts+0x290>
    3290:	7c45c83a 	sub	r2,r15,r17
    3294:	7889803a 	cmpltu	r4,r15,r2
    3298:	8487c83a 	sub	r3,r16,r18
    329c:	1909c83a 	sub	r4,r3,r4
    32a0:	100d883a 	mov	r6,r2
    32a4:	200f883a 	mov	r7,r4
    32a8:	38007716 	blt	r7,zero,3488 <_fpadd_parts+0x2f0>
    32ac:	a5c00215 	stw	r23,8(r20)
    32b0:	a1c00415 	stw	r7,16(r20)
    32b4:	a0000115 	stw	zero,4(r20)
    32b8:	a1800315 	stw	r6,12(r20)
    32bc:	a2000317 	ldw	r8,12(r20)
    32c0:	a2400417 	ldw	r9,16(r20)
    32c4:	00bfffc4 	movi	r2,-1
    32c8:	408b883a 	add	r5,r8,r2
    32cc:	2a09803a 	cmpltu	r4,r5,r8
    32d0:	488d883a 	add	r6,r9,r2
    32d4:	01c40034 	movhi	r7,4096
    32d8:	39ffffc4 	addi	r7,r7,-1
    32dc:	218d883a 	add	r6,r4,r6
    32e0:	39801736 	bltu	r7,r6,3340 <_fpadd_parts+0x1a8>
    32e4:	31c06526 	beq	r6,r7,347c <_fpadd_parts+0x2e4>
    32e8:	a3000217 	ldw	r12,8(r20)
    32ec:	4209883a 	add	r4,r8,r8
    32f0:	00bfffc4 	movi	r2,-1
    32f4:	220f803a 	cmpltu	r7,r4,r8
    32f8:	4a4b883a 	add	r5,r9,r9
    32fc:	394f883a 	add	r7,r7,r5
    3300:	2095883a 	add	r10,r4,r2
    3304:	3897883a 	add	r11,r7,r2
    3308:	510d803a 	cmpltu	r6,r10,r4
    330c:	6099883a 	add	r12,r12,r2
    3310:	32d7883a 	add	r11,r6,r11
    3314:	00840034 	movhi	r2,4096
    3318:	10bfffc4 	addi	r2,r2,-1
    331c:	2011883a 	mov	r8,r4
    3320:	3813883a 	mov	r9,r7
    3324:	a1000315 	stw	r4,12(r20)
    3328:	a1c00415 	stw	r7,16(r20)
    332c:	a3000215 	stw	r12,8(r20)
    3330:	12c00336 	bltu	r2,r11,3340 <_fpadd_parts+0x1a8>
    3334:	58bfed1e 	bne	r11,r2,32ec <_fpadd_parts+0x154>
    3338:	00bfff84 	movi	r2,-2
    333c:	12bfeb2e 	bgeu	r2,r10,32ec <_fpadd_parts+0x154>
    3340:	a2800417 	ldw	r10,16(r20)
    3344:	008000c4 	movi	r2,3
    3348:	00c80034 	movhi	r3,8192
    334c:	18ffffc4 	addi	r3,r3,-1
    3350:	a2400317 	ldw	r9,12(r20)
    3354:	a0800015 	stw	r2,0(r20)
    3358:	1a802336 	bltu	r3,r10,33e8 <_fpadd_parts+0x250>
    335c:	a027883a 	mov	r19,r20
    3360:	9805883a 	mov	r2,r19
    3364:	ddc00717 	ldw	r23,28(sp)
    3368:	dd800617 	ldw	r22,24(sp)
    336c:	dd400517 	ldw	r21,20(sp)
    3370:	dd000417 	ldw	r20,16(sp)
    3374:	dcc00317 	ldw	r19,12(sp)
    3378:	dc800217 	ldw	r18,8(sp)
    337c:	dc400117 	ldw	r17,4(sp)
    3380:	dc000017 	ldw	r16,0(sp)
    3384:	dec00804 	addi	sp,sp,32
    3388:	f800283a 	ret
    338c:	20fff41e 	bne	r4,r3,3360 <_fpadd_parts+0x1c8>
    3390:	31000015 	stw	r4,0(r6)
    3394:	98800117 	ldw	r2,4(r19)
    3398:	30800115 	stw	r2,4(r6)
    339c:	98c00217 	ldw	r3,8(r19)
    33a0:	30c00215 	stw	r3,8(r6)
    33a4:	98800317 	ldw	r2,12(r19)
    33a8:	30800315 	stw	r2,12(r6)
    33ac:	98c00417 	ldw	r3,16(r19)
    33b0:	30c00415 	stw	r3,16(r6)
    33b4:	98800117 	ldw	r2,4(r19)
    33b8:	28c00117 	ldw	r3,4(r5)
    33bc:	3027883a 	mov	r19,r6
    33c0:	10c4703a 	and	r2,r2,r3
    33c4:	30800115 	stw	r2,4(r6)
    33c8:	003fe506 	br	3360 <_fpadd_parts+0x1c8>
    33cc:	1dc02616 	blt	r3,r23,3468 <_fpadd_parts+0x2d0>
    33d0:	0023883a 	mov	r17,zero
    33d4:	182f883a 	mov	r23,r3
    33d8:	0025883a 	mov	r18,zero
    33dc:	003fa806 	br	3280 <_fpadd_parts+0xe8>
    33e0:	a827883a 	mov	r19,r21
    33e4:	003fde06 	br	3360 <_fpadd_parts+0x1c8>
    33e8:	01800044 	movi	r6,1
    33ec:	500497fa 	slli	r2,r10,31
    33f0:	4808d07a 	srli	r4,r9,1
    33f4:	518ad83a 	srl	r5,r10,r6
    33f8:	a2000217 	ldw	r8,8(r20)
    33fc:	1108b03a 	or	r4,r2,r4
    3400:	0007883a 	mov	r3,zero
    3404:	4984703a 	and	r2,r9,r6
    3408:	208cb03a 	or	r6,r4,r2
    340c:	28ceb03a 	or	r7,r5,r3
    3410:	42000044 	addi	r8,r8,1
    3414:	a027883a 	mov	r19,r20
    3418:	a1c00415 	stw	r7,16(r20)
    341c:	a2000215 	stw	r8,8(r20)
    3420:	a1800315 	stw	r6,12(r20)
    3424:	003fce06 	br	3360 <_fpadd_parts+0x1c8>
    3428:	8bc5c83a 	sub	r2,r17,r15
    342c:	8889803a 	cmpltu	r4,r17,r2
    3430:	9407c83a 	sub	r3,r18,r16
    3434:	1909c83a 	sub	r4,r3,r4
    3438:	100d883a 	mov	r6,r2
    343c:	200f883a 	mov	r7,r4
    3440:	003f9906 	br	32a8 <_fpadd_parts+0x110>
    3444:	7c45883a 	add	r2,r15,r17
    3448:	13c9803a 	cmpltu	r4,r2,r15
    344c:	8487883a 	add	r3,r16,r18
    3450:	20c9883a 	add	r4,r4,r3
    3454:	a1400115 	stw	r5,4(r20)
    3458:	a5c00215 	stw	r23,8(r20)
    345c:	a0800315 	stw	r2,12(r20)
    3460:	a1000415 	stw	r4,16(r20)
    3464:	003fb606 	br	3340 <_fpadd_parts+0x1a8>
    3468:	001f883a 	mov	r15,zero
    346c:	0021883a 	mov	r16,zero
    3470:	003f8306 	br	3280 <_fpadd_parts+0xe8>
    3474:	018dc83a 	sub	r6,zero,r6
    3478:	003f6706 	br	3218 <_fpadd_parts+0x80>
    347c:	00bfff84 	movi	r2,-2
    3480:	117faf36 	bltu	r2,r5,3340 <_fpadd_parts+0x1a8>
    3484:	003f9806 	br	32e8 <_fpadd_parts+0x150>
    3488:	0005883a 	mov	r2,zero
    348c:	1189c83a 	sub	r4,r2,r6
    3490:	1105803a 	cmpltu	r2,r2,r4
    3494:	01cbc83a 	sub	r5,zero,r7
    3498:	2885c83a 	sub	r2,r5,r2
    349c:	01800044 	movi	r6,1
    34a0:	a1800115 	stw	r6,4(r20)
    34a4:	a5c00215 	stw	r23,8(r20)
    34a8:	a1000315 	stw	r4,12(r20)
    34ac:	a0800415 	stw	r2,16(r20)
    34b0:	003f8206 	br	32bc <_fpadd_parts+0x124>
    34b4:	203f7226 	beq	r4,zero,3280 <_fpadd_parts+0xe8>
    34b8:	35bff804 	addi	r22,r6,-32
    34bc:	b9af883a 	add	r23,r23,r6
    34c0:	b0003116 	blt	r22,zero,3588 <_fpadd_parts+0x3f0>
    34c4:	959ad83a 	srl	r13,r18,r22
    34c8:	001d883a 	mov	r14,zero
    34cc:	000f883a 	mov	r7,zero
    34d0:	01000044 	movi	r4,1
    34d4:	0011883a 	mov	r8,zero
    34d8:	b0002516 	blt	r22,zero,3570 <_fpadd_parts+0x3d8>
    34dc:	2594983a 	sll	r10,r4,r22
    34e0:	0013883a 	mov	r9,zero
    34e4:	00bfffc4 	movi	r2,-1
    34e8:	4889883a 	add	r4,r9,r2
    34ec:	508b883a 	add	r5,r10,r2
    34f0:	224d803a 	cmpltu	r6,r4,r9
    34f4:	314b883a 	add	r5,r6,r5
    34f8:	8904703a 	and	r2,r17,r4
    34fc:	9146703a 	and	r3,r18,r5
    3500:	10c4b03a 	or	r2,r2,r3
    3504:	10000226 	beq	r2,zero,3510 <_fpadd_parts+0x378>
    3508:	01c00044 	movi	r7,1
    350c:	0011883a 	mov	r8,zero
    3510:	69e2b03a 	or	r17,r13,r7
    3514:	7224b03a 	or	r18,r14,r8
    3518:	003f5906 	br	3280 <_fpadd_parts+0xe8>
    351c:	8407883a 	add	r3,r16,r16
    3520:	008007c4 	movi	r2,31
    3524:	1185c83a 	sub	r2,r2,r6
    3528:	1886983a 	sll	r3,r3,r2
    352c:	7996d83a 	srl	r11,r15,r6
    3530:	8198d83a 	srl	r12,r16,r6
    3534:	1ad6b03a 	or	r11,r3,r11
    3538:	003f3e06 	br	3234 <_fpadd_parts+0x9c>
    353c:	2006d07a 	srli	r3,r4,1
    3540:	008007c4 	movi	r2,31
    3544:	1185c83a 	sub	r2,r2,r6
    3548:	1890d83a 	srl	r8,r3,r2
    354c:	218e983a 	sll	r7,r4,r6
    3550:	003f3e06 	br	324c <_fpadd_parts+0xb4>
    3554:	113f821e 	bne	r2,r4,3360 <_fpadd_parts+0x1c8>
    3558:	28c00117 	ldw	r3,4(r5)
    355c:	98800117 	ldw	r2,4(r19)
    3560:	10ff7f26 	beq	r2,r3,3360 <_fpadd_parts+0x1c8>
    3564:	04c00074 	movhi	r19,1
    3568:	9cfdf404 	addi	r19,r19,-2096
    356c:	003f7c06 	br	3360 <_fpadd_parts+0x1c8>
    3570:	2006d07a 	srli	r3,r4,1
    3574:	008007c4 	movi	r2,31
    3578:	1185c83a 	sub	r2,r2,r6
    357c:	1894d83a 	srl	r10,r3,r2
    3580:	2192983a 	sll	r9,r4,r6
    3584:	003fd706 	br	34e4 <_fpadd_parts+0x34c>
    3588:	9487883a 	add	r3,r18,r18
    358c:	008007c4 	movi	r2,31
    3590:	1185c83a 	sub	r2,r2,r6
    3594:	1886983a 	sll	r3,r3,r2
    3598:	899ad83a 	srl	r13,r17,r6
    359c:	919cd83a 	srl	r14,r18,r6
    35a0:	1b5ab03a 	or	r13,r3,r13
    35a4:	003fc906 	br	34cc <_fpadd_parts+0x334>

000035a8 <__subdf3>:
    35a8:	deffea04 	addi	sp,sp,-88
    35ac:	dcc01415 	stw	r19,80(sp)
    35b0:	dcc00404 	addi	r19,sp,16
    35b4:	2011883a 	mov	r8,r4
    35b8:	2813883a 	mov	r9,r5
    35bc:	dc401315 	stw	r17,76(sp)
    35c0:	d809883a 	mov	r4,sp
    35c4:	980b883a 	mov	r5,r19
    35c8:	dc400904 	addi	r17,sp,36
    35cc:	dfc01515 	stw	ra,84(sp)
    35d0:	da400115 	stw	r9,4(sp)
    35d4:	d9c00315 	stw	r7,12(sp)
    35d8:	da000015 	stw	r8,0(sp)
    35dc:	d9800215 	stw	r6,8(sp)
    35e0:	00045840 	call	4584 <__unpack_d>
    35e4:	d9000204 	addi	r4,sp,8
    35e8:	880b883a 	mov	r5,r17
    35ec:	00045840 	call	4584 <__unpack_d>
    35f0:	d8800a17 	ldw	r2,40(sp)
    35f4:	880b883a 	mov	r5,r17
    35f8:	9809883a 	mov	r4,r19
    35fc:	d9800e04 	addi	r6,sp,56
    3600:	1080005c 	xori	r2,r2,1
    3604:	d8800a15 	stw	r2,40(sp)
    3608:	00031980 	call	3198 <_fpadd_parts>
    360c:	1009883a 	mov	r4,r2
    3610:	00042700 	call	4270 <__pack_d>
    3614:	dfc01517 	ldw	ra,84(sp)
    3618:	dcc01417 	ldw	r19,80(sp)
    361c:	dc401317 	ldw	r17,76(sp)
    3620:	dec01604 	addi	sp,sp,88
    3624:	f800283a 	ret

00003628 <__adddf3>:
    3628:	deffea04 	addi	sp,sp,-88
    362c:	dcc01415 	stw	r19,80(sp)
    3630:	dcc00404 	addi	r19,sp,16
    3634:	2011883a 	mov	r8,r4
    3638:	2813883a 	mov	r9,r5
    363c:	dc401315 	stw	r17,76(sp)
    3640:	d809883a 	mov	r4,sp
    3644:	980b883a 	mov	r5,r19
    3648:	dc400904 	addi	r17,sp,36
    364c:	dfc01515 	stw	ra,84(sp)
    3650:	da400115 	stw	r9,4(sp)
    3654:	d9c00315 	stw	r7,12(sp)
    3658:	da000015 	stw	r8,0(sp)
    365c:	d9800215 	stw	r6,8(sp)
    3660:	00045840 	call	4584 <__unpack_d>
    3664:	d9000204 	addi	r4,sp,8
    3668:	880b883a 	mov	r5,r17
    366c:	00045840 	call	4584 <__unpack_d>
    3670:	d9800e04 	addi	r6,sp,56
    3674:	9809883a 	mov	r4,r19
    3678:	880b883a 	mov	r5,r17
    367c:	00031980 	call	3198 <_fpadd_parts>
    3680:	1009883a 	mov	r4,r2
    3684:	00042700 	call	4270 <__pack_d>
    3688:	dfc01517 	ldw	ra,84(sp)
    368c:	dcc01417 	ldw	r19,80(sp)
    3690:	dc401317 	ldw	r17,76(sp)
    3694:	dec01604 	addi	sp,sp,88
    3698:	f800283a 	ret

0000369c <__muldf3>:
    369c:	deffe004 	addi	sp,sp,-128
    36a0:	dc401815 	stw	r17,96(sp)
    36a4:	dc400404 	addi	r17,sp,16
    36a8:	2011883a 	mov	r8,r4
    36ac:	2813883a 	mov	r9,r5
    36b0:	dc001715 	stw	r16,92(sp)
    36b4:	d809883a 	mov	r4,sp
    36b8:	880b883a 	mov	r5,r17
    36bc:	dc000904 	addi	r16,sp,36
    36c0:	dfc01f15 	stw	ra,124(sp)
    36c4:	da400115 	stw	r9,4(sp)
    36c8:	d9c00315 	stw	r7,12(sp)
    36cc:	da000015 	stw	r8,0(sp)
    36d0:	d9800215 	stw	r6,8(sp)
    36d4:	ddc01e15 	stw	r23,120(sp)
    36d8:	dd801d15 	stw	r22,116(sp)
    36dc:	dd401c15 	stw	r21,112(sp)
    36e0:	dd001b15 	stw	r20,108(sp)
    36e4:	dcc01a15 	stw	r19,104(sp)
    36e8:	dc801915 	stw	r18,100(sp)
    36ec:	00045840 	call	4584 <__unpack_d>
    36f0:	d9000204 	addi	r4,sp,8
    36f4:	800b883a 	mov	r5,r16
    36f8:	00045840 	call	4584 <__unpack_d>
    36fc:	d9000417 	ldw	r4,16(sp)
    3700:	00800044 	movi	r2,1
    3704:	1100102e 	bgeu	r2,r4,3748 <__muldf3+0xac>
    3708:	d8c00917 	ldw	r3,36(sp)
    370c:	10c0062e 	bgeu	r2,r3,3728 <__muldf3+0x8c>
    3710:	00800104 	movi	r2,4
    3714:	20800a26 	beq	r4,r2,3740 <__muldf3+0xa4>
    3718:	1880cc26 	beq	r3,r2,3a4c <__muldf3+0x3b0>
    371c:	00800084 	movi	r2,2
    3720:	20800926 	beq	r4,r2,3748 <__muldf3+0xac>
    3724:	1880191e 	bne	r3,r2,378c <__muldf3+0xf0>
    3728:	d8c00a17 	ldw	r3,40(sp)
    372c:	d8800517 	ldw	r2,20(sp)
    3730:	8009883a 	mov	r4,r16
    3734:	10c4c03a 	cmpne	r2,r2,r3
    3738:	d8800a15 	stw	r2,40(sp)
    373c:	00000706 	br	375c <__muldf3+0xc0>
    3740:	00800084 	movi	r2,2
    3744:	1880c326 	beq	r3,r2,3a54 <__muldf3+0x3b8>
    3748:	d8800517 	ldw	r2,20(sp)
    374c:	d8c00a17 	ldw	r3,40(sp)
    3750:	8809883a 	mov	r4,r17
    3754:	10c4c03a 	cmpne	r2,r2,r3
    3758:	d8800515 	stw	r2,20(sp)
    375c:	00042700 	call	4270 <__pack_d>
    3760:	dfc01f17 	ldw	ra,124(sp)
    3764:	ddc01e17 	ldw	r23,120(sp)
    3768:	dd801d17 	ldw	r22,116(sp)
    376c:	dd401c17 	ldw	r21,112(sp)
    3770:	dd001b17 	ldw	r20,108(sp)
    3774:	dcc01a17 	ldw	r19,104(sp)
    3778:	dc801917 	ldw	r18,100(sp)
    377c:	dc401817 	ldw	r17,96(sp)
    3780:	dc001717 	ldw	r16,92(sp)
    3784:	dec02004 	addi	sp,sp,128
    3788:	f800283a 	ret
    378c:	dd800717 	ldw	r22,28(sp)
    3790:	dc800c17 	ldw	r18,48(sp)
    3794:	002b883a 	mov	r21,zero
    3798:	0023883a 	mov	r17,zero
    379c:	a80b883a 	mov	r5,r21
    37a0:	b00d883a 	mov	r6,r22
    37a4:	880f883a 	mov	r7,r17
    37a8:	ddc00817 	ldw	r23,32(sp)
    37ac:	dcc00d17 	ldw	r19,52(sp)
    37b0:	9009883a 	mov	r4,r18
    37b4:	00040900 	call	4090 <__muldi3>
    37b8:	001b883a 	mov	r13,zero
    37bc:	680f883a 	mov	r7,r13
    37c0:	b009883a 	mov	r4,r22
    37c4:	000b883a 	mov	r5,zero
    37c8:	980d883a 	mov	r6,r19
    37cc:	b82d883a 	mov	r22,r23
    37d0:	002f883a 	mov	r23,zero
    37d4:	db401615 	stw	r13,88(sp)
    37d8:	d8801315 	stw	r2,76(sp)
    37dc:	d8c01415 	stw	r3,80(sp)
    37e0:	dcc01515 	stw	r19,84(sp)
    37e4:	00040900 	call	4090 <__muldi3>
    37e8:	b00d883a 	mov	r6,r22
    37ec:	000b883a 	mov	r5,zero
    37f0:	9009883a 	mov	r4,r18
    37f4:	b80f883a 	mov	r7,r23
    37f8:	1021883a 	mov	r16,r2
    37fc:	1823883a 	mov	r17,r3
    3800:	00040900 	call	4090 <__muldi3>
    3804:	8085883a 	add	r2,r16,r2
    3808:	140d803a 	cmpltu	r6,r2,r16
    380c:	88c7883a 	add	r3,r17,r3
    3810:	30cd883a 	add	r6,r6,r3
    3814:	1029883a 	mov	r20,r2
    3818:	302b883a 	mov	r21,r6
    381c:	da801317 	ldw	r10,76(sp)
    3820:	dac01417 	ldw	r11,80(sp)
    3824:	db001517 	ldw	r12,84(sp)
    3828:	db401617 	ldw	r13,88(sp)
    382c:	3440612e 	bgeu	r6,r17,39b4 <__muldf3+0x318>
    3830:	0009883a 	mov	r4,zero
    3834:	5105883a 	add	r2,r10,r4
    3838:	128d803a 	cmpltu	r6,r2,r10
    383c:	5d07883a 	add	r3,r11,r20
    3840:	30cd883a 	add	r6,r6,r3
    3844:	0021883a 	mov	r16,zero
    3848:	04400044 	movi	r17,1
    384c:	1025883a 	mov	r18,r2
    3850:	3027883a 	mov	r19,r6
    3854:	32c06236 	bltu	r6,r11,39e0 <__muldf3+0x344>
    3858:	59807a26 	beq	r11,r6,3a44 <__muldf3+0x3a8>
    385c:	680b883a 	mov	r5,r13
    3860:	b80f883a 	mov	r7,r23
    3864:	6009883a 	mov	r4,r12
    3868:	b00d883a 	mov	r6,r22
    386c:	00040900 	call	4090 <__muldi3>
    3870:	1009883a 	mov	r4,r2
    3874:	000f883a 	mov	r7,zero
    3878:	1545883a 	add	r2,r2,r21
    387c:	1111803a 	cmpltu	r8,r2,r4
    3880:	19c7883a 	add	r3,r3,r7
    3884:	40c7883a 	add	r3,r8,r3
    3888:	88cb883a 	add	r5,r17,r3
    388c:	d8c00617 	ldw	r3,24(sp)
    3890:	8089883a 	add	r4,r16,r2
    3894:	d8800b17 	ldw	r2,44(sp)
    3898:	18c00104 	addi	r3,r3,4
    389c:	240d803a 	cmpltu	r6,r4,r16
    38a0:	10c7883a 	add	r3,r2,r3
    38a4:	2013883a 	mov	r9,r4
    38a8:	d8800a17 	ldw	r2,40(sp)
    38ac:	d9000517 	ldw	r4,20(sp)
    38b0:	314d883a 	add	r6,r6,r5
    38b4:	3015883a 	mov	r10,r6
    38b8:	2088c03a 	cmpne	r4,r4,r2
    38bc:	00880034 	movhi	r2,8192
    38c0:	10bfffc4 	addi	r2,r2,-1
    38c4:	d9000f15 	stw	r4,60(sp)
    38c8:	d8c01015 	stw	r3,64(sp)
    38cc:	1180162e 	bgeu	r2,r6,3928 <__muldf3+0x28c>
    38d0:	1811883a 	mov	r8,r3
    38d4:	101f883a 	mov	r15,r2
    38d8:	980497fa 	slli	r2,r19,31
    38dc:	9016d07a 	srli	r11,r18,1
    38e0:	500697fa 	slli	r3,r10,31
    38e4:	480cd07a 	srli	r6,r9,1
    38e8:	500ed07a 	srli	r7,r10,1
    38ec:	12d6b03a 	or	r11,r2,r11
    38f0:	00800044 	movi	r2,1
    38f4:	198cb03a 	or	r6,r3,r6
    38f8:	4888703a 	and	r4,r9,r2
    38fc:	9818d07a 	srli	r12,r19,1
    3900:	001b883a 	mov	r13,zero
    3904:	03a00034 	movhi	r14,32768
    3908:	3013883a 	mov	r9,r6
    390c:	3815883a 	mov	r10,r7
    3910:	4091883a 	add	r8,r8,r2
    3914:	20000226 	beq	r4,zero,3920 <__muldf3+0x284>
    3918:	5b64b03a 	or	r18,r11,r13
    391c:	63a6b03a 	or	r19,r12,r14
    3920:	7abfed36 	bltu	r15,r10,38d8 <__muldf3+0x23c>
    3924:	da001015 	stw	r8,64(sp)
    3928:	00840034 	movhi	r2,4096
    392c:	10bfffc4 	addi	r2,r2,-1
    3930:	12801436 	bltu	r2,r10,3984 <__muldf3+0x2e8>
    3934:	da001017 	ldw	r8,64(sp)
    3938:	101f883a 	mov	r15,r2
    393c:	4a45883a 	add	r2,r9,r9
    3940:	124d803a 	cmpltu	r6,r2,r9
    3944:	5287883a 	add	r3,r10,r10
    3948:	9497883a 	add	r11,r18,r18
    394c:	5c8f803a 	cmpltu	r7,r11,r18
    3950:	9cd9883a 	add	r12,r19,r19
    3954:	01000044 	movi	r4,1
    3958:	30cd883a 	add	r6,r6,r3
    395c:	3b0f883a 	add	r7,r7,r12
    3960:	423fffc4 	addi	r8,r8,-1
    3964:	1013883a 	mov	r9,r2
    3968:	3015883a 	mov	r10,r6
    396c:	111ab03a 	or	r13,r2,r4
    3970:	98003016 	blt	r19,zero,3a34 <__muldf3+0x398>
    3974:	5825883a 	mov	r18,r11
    3978:	3827883a 	mov	r19,r7
    397c:	7abfef2e 	bgeu	r15,r10,393c <__muldf3+0x2a0>
    3980:	da001015 	stw	r8,64(sp)
    3984:	00803fc4 	movi	r2,255
    3988:	488e703a 	and	r7,r9,r2
    398c:	00802004 	movi	r2,128
    3990:	0007883a 	mov	r3,zero
    3994:	0011883a 	mov	r8,zero
    3998:	38801826 	beq	r7,r2,39fc <__muldf3+0x360>
    399c:	008000c4 	movi	r2,3
    39a0:	d9000e04 	addi	r4,sp,56
    39a4:	da801215 	stw	r10,72(sp)
    39a8:	d8800e15 	stw	r2,56(sp)
    39ac:	da401115 	stw	r9,68(sp)
    39b0:	003f6a06 	br	375c <__muldf3+0xc0>
    39b4:	89802126 	beq	r17,r6,3a3c <__muldf3+0x3a0>
    39b8:	0009883a 	mov	r4,zero
    39bc:	5105883a 	add	r2,r10,r4
    39c0:	128d803a 	cmpltu	r6,r2,r10
    39c4:	5d07883a 	add	r3,r11,r20
    39c8:	30cd883a 	add	r6,r6,r3
    39cc:	0021883a 	mov	r16,zero
    39d0:	0023883a 	mov	r17,zero
    39d4:	1025883a 	mov	r18,r2
    39d8:	3027883a 	mov	r19,r6
    39dc:	32ff9e2e 	bgeu	r6,r11,3858 <__muldf3+0x1bc>
    39e0:	00800044 	movi	r2,1
    39e4:	8089883a 	add	r4,r16,r2
    39e8:	240d803a 	cmpltu	r6,r4,r16
    39ec:	344d883a 	add	r6,r6,r17
    39f0:	2021883a 	mov	r16,r4
    39f4:	3023883a 	mov	r17,r6
    39f8:	003f9806 	br	385c <__muldf3+0x1c0>
    39fc:	403fe71e 	bne	r8,zero,399c <__muldf3+0x300>
    3a00:	01004004 	movi	r4,256
    3a04:	4904703a 	and	r2,r9,r4
    3a08:	10c4b03a 	or	r2,r2,r3
    3a0c:	103fe31e 	bne	r2,zero,399c <__muldf3+0x300>
    3a10:	94c4b03a 	or	r2,r18,r19
    3a14:	103fe126 	beq	r2,zero,399c <__muldf3+0x300>
    3a18:	49c5883a 	add	r2,r9,r7
    3a1c:	1251803a 	cmpltu	r8,r2,r9
    3a20:	4291883a 	add	r8,r8,r10
    3a24:	013fc004 	movi	r4,-256
    3a28:	1112703a 	and	r9,r2,r4
    3a2c:	4015883a 	mov	r10,r8
    3a30:	003fda06 	br	399c <__muldf3+0x300>
    3a34:	6813883a 	mov	r9,r13
    3a38:	003fce06 	br	3974 <__muldf3+0x2d8>
    3a3c:	143f7c36 	bltu	r2,r16,3830 <__muldf3+0x194>
    3a40:	003fdd06 	br	39b8 <__muldf3+0x31c>
    3a44:	12bf852e 	bgeu	r2,r10,385c <__muldf3+0x1c0>
    3a48:	003fe506 	br	39e0 <__muldf3+0x344>
    3a4c:	00800084 	movi	r2,2
    3a50:	20bf351e 	bne	r4,r2,3728 <__muldf3+0x8c>
    3a54:	01000074 	movhi	r4,1
    3a58:	213df404 	addi	r4,r4,-2096
    3a5c:	003f3f06 	br	375c <__muldf3+0xc0>

00003a60 <__divdf3>:
    3a60:	deffed04 	addi	sp,sp,-76
    3a64:	dcc01115 	stw	r19,68(sp)
    3a68:	dcc00404 	addi	r19,sp,16
    3a6c:	2011883a 	mov	r8,r4
    3a70:	2813883a 	mov	r9,r5
    3a74:	dc000e15 	stw	r16,56(sp)
    3a78:	d809883a 	mov	r4,sp
    3a7c:	980b883a 	mov	r5,r19
    3a80:	dc000904 	addi	r16,sp,36
    3a84:	dfc01215 	stw	ra,72(sp)
    3a88:	da400115 	stw	r9,4(sp)
    3a8c:	d9c00315 	stw	r7,12(sp)
    3a90:	da000015 	stw	r8,0(sp)
    3a94:	d9800215 	stw	r6,8(sp)
    3a98:	dc801015 	stw	r18,64(sp)
    3a9c:	dc400f15 	stw	r17,60(sp)
    3aa0:	00045840 	call	4584 <__unpack_d>
    3aa4:	d9000204 	addi	r4,sp,8
    3aa8:	800b883a 	mov	r5,r16
    3aac:	00045840 	call	4584 <__unpack_d>
    3ab0:	d9000417 	ldw	r4,16(sp)
    3ab4:	00800044 	movi	r2,1
    3ab8:	11000b2e 	bgeu	r2,r4,3ae8 <__divdf3+0x88>
    3abc:	d9400917 	ldw	r5,36(sp)
    3ac0:	1140762e 	bgeu	r2,r5,3c9c <__divdf3+0x23c>
    3ac4:	d8800517 	ldw	r2,20(sp)
    3ac8:	d8c00a17 	ldw	r3,40(sp)
    3acc:	01800104 	movi	r6,4
    3ad0:	10c4f03a 	xor	r2,r2,r3
    3ad4:	d8800515 	stw	r2,20(sp)
    3ad8:	21800226 	beq	r4,r6,3ae4 <__divdf3+0x84>
    3adc:	00800084 	movi	r2,2
    3ae0:	2080141e 	bne	r4,r2,3b34 <__divdf3+0xd4>
    3ae4:	29000926 	beq	r5,r4,3b0c <__divdf3+0xac>
    3ae8:	9809883a 	mov	r4,r19
    3aec:	00042700 	call	4270 <__pack_d>
    3af0:	dfc01217 	ldw	ra,72(sp)
    3af4:	dcc01117 	ldw	r19,68(sp)
    3af8:	dc801017 	ldw	r18,64(sp)
    3afc:	dc400f17 	ldw	r17,60(sp)
    3b00:	dc000e17 	ldw	r16,56(sp)
    3b04:	dec01304 	addi	sp,sp,76
    3b08:	f800283a 	ret
    3b0c:	01000074 	movhi	r4,1
    3b10:	213df404 	addi	r4,r4,-2096
    3b14:	00042700 	call	4270 <__pack_d>
    3b18:	dfc01217 	ldw	ra,72(sp)
    3b1c:	dcc01117 	ldw	r19,68(sp)
    3b20:	dc801017 	ldw	r18,64(sp)
    3b24:	dc400f17 	ldw	r17,60(sp)
    3b28:	dc000e17 	ldw	r16,56(sp)
    3b2c:	dec01304 	addi	sp,sp,76
    3b30:	f800283a 	ret
    3b34:	29805b26 	beq	r5,r6,3ca4 <__divdf3+0x244>
    3b38:	28802d26 	beq	r5,r2,3bf0 <__divdf3+0x190>
    3b3c:	d8c00617 	ldw	r3,24(sp)
    3b40:	d8800b17 	ldw	r2,44(sp)
    3b44:	d9c00817 	ldw	r7,32(sp)
    3b48:	dc400d17 	ldw	r17,52(sp)
    3b4c:	188bc83a 	sub	r5,r3,r2
    3b50:	d9800717 	ldw	r6,28(sp)
    3b54:	dc000c17 	ldw	r16,48(sp)
    3b58:	d9400615 	stw	r5,24(sp)
    3b5c:	3c403836 	bltu	r7,r17,3c40 <__divdf3+0x1e0>
    3b60:	89c03626 	beq	r17,r7,3c3c <__divdf3+0x1dc>
    3b64:	0015883a 	mov	r10,zero
    3b68:	001d883a 	mov	r14,zero
    3b6c:	02c40034 	movhi	r11,4096
    3b70:	001f883a 	mov	r15,zero
    3b74:	003f883a 	mov	ra,zero
    3b78:	04800f44 	movi	r18,61
    3b7c:	00000f06 	br	3bbc <__divdf3+0x15c>
    3b80:	601d883a 	mov	r14,r12
    3b84:	681f883a 	mov	r15,r13
    3b88:	400d883a 	mov	r6,r8
    3b8c:	100f883a 	mov	r7,r2
    3b90:	3191883a 	add	r8,r6,r6
    3b94:	5808d07a 	srli	r4,r11,1
    3b98:	4185803a 	cmpltu	r2,r8,r6
    3b9c:	39d3883a 	add	r9,r7,r7
    3ba0:	28c6b03a 	or	r3,r5,r3
    3ba4:	1245883a 	add	r2,r2,r9
    3ba8:	1815883a 	mov	r10,r3
    3bac:	2017883a 	mov	r11,r4
    3bb0:	400d883a 	mov	r6,r8
    3bb4:	100f883a 	mov	r7,r2
    3bb8:	fc801726 	beq	ra,r18,3c18 <__divdf3+0x1b8>
    3bbc:	580a97fa 	slli	r5,r11,31
    3bc0:	5006d07a 	srli	r3,r10,1
    3bc4:	ffc00044 	addi	ra,ra,1
    3bc8:	3c7ff136 	bltu	r7,r17,3b90 <__divdf3+0x130>
    3bcc:	3411c83a 	sub	r8,r6,r16
    3bd0:	3205803a 	cmpltu	r2,r6,r8
    3bd4:	3c53c83a 	sub	r9,r7,r17
    3bd8:	7298b03a 	or	r12,r14,r10
    3bdc:	7adab03a 	or	r13,r15,r11
    3be0:	4885c83a 	sub	r2,r9,r2
    3be4:	89ffe61e 	bne	r17,r7,3b80 <__divdf3+0x120>
    3be8:	343fe936 	bltu	r6,r16,3b90 <__divdf3+0x130>
    3bec:	003fe406 	br	3b80 <__divdf3+0x120>
    3bf0:	9809883a 	mov	r4,r19
    3bf4:	d9800415 	stw	r6,16(sp)
    3bf8:	00042700 	call	4270 <__pack_d>
    3bfc:	dfc01217 	ldw	ra,72(sp)
    3c00:	dcc01117 	ldw	r19,68(sp)
    3c04:	dc801017 	ldw	r18,64(sp)
    3c08:	dc400f17 	ldw	r17,60(sp)
    3c0c:	dc000e17 	ldw	r16,56(sp)
    3c10:	dec01304 	addi	sp,sp,76
    3c14:	f800283a 	ret
    3c18:	00803fc4 	movi	r2,255
    3c1c:	7090703a 	and	r8,r14,r2
    3c20:	00802004 	movi	r2,128
    3c24:	0007883a 	mov	r3,zero
    3c28:	0013883a 	mov	r9,zero
    3c2c:	40800d26 	beq	r8,r2,3c64 <__divdf3+0x204>
    3c30:	dbc00815 	stw	r15,32(sp)
    3c34:	db800715 	stw	r14,28(sp)
    3c38:	003fab06 	br	3ae8 <__divdf3+0x88>
    3c3c:	343fc92e 	bgeu	r6,r16,3b64 <__divdf3+0x104>
    3c40:	3185883a 	add	r2,r6,r6
    3c44:	1189803a 	cmpltu	r4,r2,r6
    3c48:	39c7883a 	add	r3,r7,r7
    3c4c:	20c9883a 	add	r4,r4,r3
    3c50:	297fffc4 	addi	r5,r5,-1
    3c54:	100d883a 	mov	r6,r2
    3c58:	200f883a 	mov	r7,r4
    3c5c:	d9400615 	stw	r5,24(sp)
    3c60:	003fc006 	br	3b64 <__divdf3+0x104>
    3c64:	483ff21e 	bne	r9,zero,3c30 <__divdf3+0x1d0>
    3c68:	01004004 	movi	r4,256
    3c6c:	7104703a 	and	r2,r14,r4
    3c70:	10c4b03a 	or	r2,r2,r3
    3c74:	103fee1e 	bne	r2,zero,3c30 <__divdf3+0x1d0>
    3c78:	31c4b03a 	or	r2,r6,r7
    3c7c:	103fec26 	beq	r2,zero,3c30 <__divdf3+0x1d0>
    3c80:	7205883a 	add	r2,r14,r8
    3c84:	1391803a 	cmpltu	r8,r2,r14
    3c88:	43d1883a 	add	r8,r8,r15
    3c8c:	013fc004 	movi	r4,-256
    3c90:	111c703a 	and	r14,r2,r4
    3c94:	401f883a 	mov	r15,r8
    3c98:	003fe506 	br	3c30 <__divdf3+0x1d0>
    3c9c:	8009883a 	mov	r4,r16
    3ca0:	003f9206 	br	3aec <__divdf3+0x8c>
    3ca4:	9809883a 	mov	r4,r19
    3ca8:	d8000715 	stw	zero,28(sp)
    3cac:	d8000815 	stw	zero,32(sp)
    3cb0:	d8000615 	stw	zero,24(sp)
    3cb4:	003f8d06 	br	3aec <__divdf3+0x8c>

00003cb8 <__eqdf2>:
    3cb8:	deffef04 	addi	sp,sp,-68
    3cbc:	dc400f15 	stw	r17,60(sp)
    3cc0:	dc400404 	addi	r17,sp,16
    3cc4:	2005883a 	mov	r2,r4
    3cc8:	2807883a 	mov	r3,r5
    3ccc:	dc000e15 	stw	r16,56(sp)
    3cd0:	d809883a 	mov	r4,sp
    3cd4:	880b883a 	mov	r5,r17
    3cd8:	dc000904 	addi	r16,sp,36
    3cdc:	d8c00115 	stw	r3,4(sp)
    3ce0:	d8800015 	stw	r2,0(sp)
    3ce4:	d9800215 	stw	r6,8(sp)
    3ce8:	dfc01015 	stw	ra,64(sp)
    3cec:	d9c00315 	stw	r7,12(sp)
    3cf0:	00045840 	call	4584 <__unpack_d>
    3cf4:	d9000204 	addi	r4,sp,8
    3cf8:	800b883a 	mov	r5,r16
    3cfc:	00045840 	call	4584 <__unpack_d>
    3d00:	d8800417 	ldw	r2,16(sp)
    3d04:	00c00044 	movi	r3,1
    3d08:	180d883a 	mov	r6,r3
    3d0c:	1880062e 	bgeu	r3,r2,3d28 <__eqdf2+0x70>
    3d10:	d8800917 	ldw	r2,36(sp)
    3d14:	8809883a 	mov	r4,r17
    3d18:	800b883a 	mov	r5,r16
    3d1c:	1880022e 	bgeu	r3,r2,3d28 <__eqdf2+0x70>
    3d20:	00046bc0 	call	46bc <__fpcmp_parts_d>
    3d24:	100d883a 	mov	r6,r2
    3d28:	3005883a 	mov	r2,r6
    3d2c:	dfc01017 	ldw	ra,64(sp)
    3d30:	dc400f17 	ldw	r17,60(sp)
    3d34:	dc000e17 	ldw	r16,56(sp)
    3d38:	dec01104 	addi	sp,sp,68
    3d3c:	f800283a 	ret

00003d40 <__gtdf2>:
    3d40:	deffef04 	addi	sp,sp,-68
    3d44:	dc400f15 	stw	r17,60(sp)
    3d48:	dc400404 	addi	r17,sp,16
    3d4c:	2005883a 	mov	r2,r4
    3d50:	2807883a 	mov	r3,r5
    3d54:	dc000e15 	stw	r16,56(sp)
    3d58:	d809883a 	mov	r4,sp
    3d5c:	880b883a 	mov	r5,r17
    3d60:	dc000904 	addi	r16,sp,36
    3d64:	d8c00115 	stw	r3,4(sp)
    3d68:	d8800015 	stw	r2,0(sp)
    3d6c:	d9800215 	stw	r6,8(sp)
    3d70:	dfc01015 	stw	ra,64(sp)
    3d74:	d9c00315 	stw	r7,12(sp)
    3d78:	00045840 	call	4584 <__unpack_d>
    3d7c:	d9000204 	addi	r4,sp,8
    3d80:	800b883a 	mov	r5,r16
    3d84:	00045840 	call	4584 <__unpack_d>
    3d88:	d8800417 	ldw	r2,16(sp)
    3d8c:	00c00044 	movi	r3,1
    3d90:	01bfffc4 	movi	r6,-1
    3d94:	1880062e 	bgeu	r3,r2,3db0 <__gtdf2+0x70>
    3d98:	d8800917 	ldw	r2,36(sp)
    3d9c:	8809883a 	mov	r4,r17
    3da0:	800b883a 	mov	r5,r16
    3da4:	1880022e 	bgeu	r3,r2,3db0 <__gtdf2+0x70>
    3da8:	00046bc0 	call	46bc <__fpcmp_parts_d>
    3dac:	100d883a 	mov	r6,r2
    3db0:	3005883a 	mov	r2,r6
    3db4:	dfc01017 	ldw	ra,64(sp)
    3db8:	dc400f17 	ldw	r17,60(sp)
    3dbc:	dc000e17 	ldw	r16,56(sp)
    3dc0:	dec01104 	addi	sp,sp,68
    3dc4:	f800283a 	ret

00003dc8 <__gedf2>:
    3dc8:	deffef04 	addi	sp,sp,-68
    3dcc:	dc400f15 	stw	r17,60(sp)
    3dd0:	dc400404 	addi	r17,sp,16
    3dd4:	2005883a 	mov	r2,r4
    3dd8:	2807883a 	mov	r3,r5
    3ddc:	dc000e15 	stw	r16,56(sp)
    3de0:	d809883a 	mov	r4,sp
    3de4:	880b883a 	mov	r5,r17
    3de8:	dc000904 	addi	r16,sp,36
    3dec:	d8c00115 	stw	r3,4(sp)
    3df0:	d8800015 	stw	r2,0(sp)
    3df4:	d9800215 	stw	r6,8(sp)
    3df8:	dfc01015 	stw	ra,64(sp)
    3dfc:	d9c00315 	stw	r7,12(sp)
    3e00:	00045840 	call	4584 <__unpack_d>
    3e04:	d9000204 	addi	r4,sp,8
    3e08:	800b883a 	mov	r5,r16
    3e0c:	00045840 	call	4584 <__unpack_d>
    3e10:	d8800417 	ldw	r2,16(sp)
    3e14:	00c00044 	movi	r3,1
    3e18:	01bfffc4 	movi	r6,-1
    3e1c:	1880062e 	bgeu	r3,r2,3e38 <__gedf2+0x70>
    3e20:	d8800917 	ldw	r2,36(sp)
    3e24:	8809883a 	mov	r4,r17
    3e28:	800b883a 	mov	r5,r16
    3e2c:	1880022e 	bgeu	r3,r2,3e38 <__gedf2+0x70>
    3e30:	00046bc0 	call	46bc <__fpcmp_parts_d>
    3e34:	100d883a 	mov	r6,r2
    3e38:	3005883a 	mov	r2,r6
    3e3c:	dfc01017 	ldw	ra,64(sp)
    3e40:	dc400f17 	ldw	r17,60(sp)
    3e44:	dc000e17 	ldw	r16,56(sp)
    3e48:	dec01104 	addi	sp,sp,68
    3e4c:	f800283a 	ret

00003e50 <__ltdf2>:
    3e50:	deffef04 	addi	sp,sp,-68
    3e54:	dc400f15 	stw	r17,60(sp)
    3e58:	dc400404 	addi	r17,sp,16
    3e5c:	2005883a 	mov	r2,r4
    3e60:	2807883a 	mov	r3,r5
    3e64:	dc000e15 	stw	r16,56(sp)
    3e68:	d809883a 	mov	r4,sp
    3e6c:	880b883a 	mov	r5,r17
    3e70:	dc000904 	addi	r16,sp,36
    3e74:	d8c00115 	stw	r3,4(sp)
    3e78:	d8800015 	stw	r2,0(sp)
    3e7c:	d9800215 	stw	r6,8(sp)
    3e80:	dfc01015 	stw	ra,64(sp)
    3e84:	d9c00315 	stw	r7,12(sp)
    3e88:	00045840 	call	4584 <__unpack_d>
    3e8c:	d9000204 	addi	r4,sp,8
    3e90:	800b883a 	mov	r5,r16
    3e94:	00045840 	call	4584 <__unpack_d>
    3e98:	d8800417 	ldw	r2,16(sp)
    3e9c:	00c00044 	movi	r3,1
    3ea0:	180d883a 	mov	r6,r3
    3ea4:	1880062e 	bgeu	r3,r2,3ec0 <__ltdf2+0x70>
    3ea8:	d8800917 	ldw	r2,36(sp)
    3eac:	8809883a 	mov	r4,r17
    3eb0:	800b883a 	mov	r5,r16
    3eb4:	1880022e 	bgeu	r3,r2,3ec0 <__ltdf2+0x70>
    3eb8:	00046bc0 	call	46bc <__fpcmp_parts_d>
    3ebc:	100d883a 	mov	r6,r2
    3ec0:	3005883a 	mov	r2,r6
    3ec4:	dfc01017 	ldw	ra,64(sp)
    3ec8:	dc400f17 	ldw	r17,60(sp)
    3ecc:	dc000e17 	ldw	r16,56(sp)
    3ed0:	dec01104 	addi	sp,sp,68
    3ed4:	f800283a 	ret

00003ed8 <__ledf2>:
    3ed8:	deffef04 	addi	sp,sp,-68
    3edc:	dc400f15 	stw	r17,60(sp)
    3ee0:	dc400404 	addi	r17,sp,16
    3ee4:	2005883a 	mov	r2,r4
    3ee8:	2807883a 	mov	r3,r5
    3eec:	dc000e15 	stw	r16,56(sp)
    3ef0:	d809883a 	mov	r4,sp
    3ef4:	880b883a 	mov	r5,r17
    3ef8:	dc000904 	addi	r16,sp,36
    3efc:	d8c00115 	stw	r3,4(sp)
    3f00:	d8800015 	stw	r2,0(sp)
    3f04:	d9800215 	stw	r6,8(sp)
    3f08:	dfc01015 	stw	ra,64(sp)
    3f0c:	d9c00315 	stw	r7,12(sp)
    3f10:	00045840 	call	4584 <__unpack_d>
    3f14:	d9000204 	addi	r4,sp,8
    3f18:	800b883a 	mov	r5,r16
    3f1c:	00045840 	call	4584 <__unpack_d>
    3f20:	d8800417 	ldw	r2,16(sp)
    3f24:	00c00044 	movi	r3,1
    3f28:	180d883a 	mov	r6,r3
    3f2c:	1880062e 	bgeu	r3,r2,3f48 <__ledf2+0x70>
    3f30:	d8800917 	ldw	r2,36(sp)
    3f34:	8809883a 	mov	r4,r17
    3f38:	800b883a 	mov	r5,r16
    3f3c:	1880022e 	bgeu	r3,r2,3f48 <__ledf2+0x70>
    3f40:	00046bc0 	call	46bc <__fpcmp_parts_d>
    3f44:	100d883a 	mov	r6,r2
    3f48:	3005883a 	mov	r2,r6
    3f4c:	dfc01017 	ldw	ra,64(sp)
    3f50:	dc400f17 	ldw	r17,60(sp)
    3f54:	dc000e17 	ldw	r16,56(sp)
    3f58:	dec01104 	addi	sp,sp,68
    3f5c:	f800283a 	ret

00003f60 <__floatsidf>:
    3f60:	2006d7fa 	srli	r3,r4,31
    3f64:	defff604 	addi	sp,sp,-40
    3f68:	008000c4 	movi	r2,3
    3f6c:	dfc00915 	stw	ra,36(sp)
    3f70:	dcc00815 	stw	r19,32(sp)
    3f74:	dc800715 	stw	r18,28(sp)
    3f78:	dc400615 	stw	r17,24(sp)
    3f7c:	dc000515 	stw	r16,20(sp)
    3f80:	d8800015 	stw	r2,0(sp)
    3f84:	d8c00115 	stw	r3,4(sp)
    3f88:	20000f1e 	bne	r4,zero,3fc8 <__floatsidf+0x68>
    3f8c:	00800084 	movi	r2,2
    3f90:	d8800015 	stw	r2,0(sp)
    3f94:	d809883a 	mov	r4,sp
    3f98:	00042700 	call	4270 <__pack_d>
    3f9c:	1009883a 	mov	r4,r2
    3fa0:	180b883a 	mov	r5,r3
    3fa4:	2005883a 	mov	r2,r4
    3fa8:	2807883a 	mov	r3,r5
    3fac:	dfc00917 	ldw	ra,36(sp)
    3fb0:	dcc00817 	ldw	r19,32(sp)
    3fb4:	dc800717 	ldw	r18,28(sp)
    3fb8:	dc400617 	ldw	r17,24(sp)
    3fbc:	dc000517 	ldw	r16,20(sp)
    3fc0:	dec00a04 	addi	sp,sp,40
    3fc4:	f800283a 	ret
    3fc8:	00800f04 	movi	r2,60
    3fcc:	1807003a 	cmpeq	r3,r3,zero
    3fd0:	d8800215 	stw	r2,8(sp)
    3fd4:	18001126 	beq	r3,zero,401c <__floatsidf+0xbc>
    3fd8:	0027883a 	mov	r19,zero
    3fdc:	2025883a 	mov	r18,r4
    3fe0:	d9000315 	stw	r4,12(sp)
    3fe4:	dcc00415 	stw	r19,16(sp)
    3fe8:	00041280 	call	4128 <__clzsi2>
    3fec:	11000744 	addi	r4,r2,29
    3ff0:	013fe80e 	bge	zero,r4,3f94 <__floatsidf+0x34>
    3ff4:	10bfff44 	addi	r2,r2,-3
    3ff8:	10000c16 	blt	r2,zero,402c <__floatsidf+0xcc>
    3ffc:	90a2983a 	sll	r17,r18,r2
    4000:	0021883a 	mov	r16,zero
    4004:	d8800217 	ldw	r2,8(sp)
    4008:	dc400415 	stw	r17,16(sp)
    400c:	dc000315 	stw	r16,12(sp)
    4010:	1105c83a 	sub	r2,r2,r4
    4014:	d8800215 	stw	r2,8(sp)
    4018:	003fde06 	br	3f94 <__floatsidf+0x34>
    401c:	00a00034 	movhi	r2,32768
    4020:	20800a26 	beq	r4,r2,404c <__floatsidf+0xec>
    4024:	0109c83a 	sub	r4,zero,r4
    4028:	003feb06 	br	3fd8 <__floatsidf+0x78>
    402c:	9006d07a 	srli	r3,r18,1
    4030:	008007c4 	movi	r2,31
    4034:	1105c83a 	sub	r2,r2,r4
    4038:	1886d83a 	srl	r3,r3,r2
    403c:	9922983a 	sll	r17,r19,r4
    4040:	9120983a 	sll	r16,r18,r4
    4044:	1c62b03a 	or	r17,r3,r17
    4048:	003fee06 	br	4004 <__floatsidf+0xa4>
    404c:	0009883a 	mov	r4,zero
    4050:	01707834 	movhi	r5,49632
    4054:	003fd306 	br	3fa4 <__floatsidf+0x44>

00004058 <__make_dp>:
    4058:	defff904 	addi	sp,sp,-28
    405c:	d8c00717 	ldw	r3,28(sp)
    4060:	d9000015 	stw	r4,0(sp)
    4064:	d809883a 	mov	r4,sp
    4068:	dfc00515 	stw	ra,20(sp)
    406c:	d9c00615 	stw	r7,24(sp)
    4070:	d9400115 	stw	r5,4(sp)
    4074:	d9800215 	stw	r6,8(sp)
    4078:	d8c00415 	stw	r3,16(sp)
    407c:	d9c00315 	stw	r7,12(sp)
    4080:	00042700 	call	4270 <__pack_d>
    4084:	dfc00517 	ldw	ra,20(sp)
    4088:	dec00704 	addi	sp,sp,28
    408c:	f800283a 	ret

00004090 <__muldi3>:
    4090:	2011883a 	mov	r8,r4
    4094:	427fffcc 	andi	r9,r8,65535
    4098:	4018d43a 	srli	r12,r8,16
    409c:	32bfffcc 	andi	r10,r6,65535
    40a0:	3016d43a 	srli	r11,r6,16
    40a4:	4a85383a 	mul	r2,r9,r10
    40a8:	6295383a 	mul	r10,r12,r10
    40ac:	4ad3383a 	mul	r9,r9,r11
    40b0:	113fffcc 	andi	r4,r2,65535
    40b4:	1004d43a 	srli	r2,r2,16
    40b8:	4a93883a 	add	r9,r9,r10
    40bc:	3807883a 	mov	r3,r7
    40c0:	1245883a 	add	r2,r2,r9
    40c4:	280f883a 	mov	r7,r5
    40c8:	180b883a 	mov	r5,r3
    40cc:	1006943a 	slli	r3,r2,16
    40d0:	defffd04 	addi	sp,sp,-12
    40d4:	dc800215 	stw	r18,8(sp)
    40d8:	1907883a 	add	r3,r3,r4
    40dc:	dc400115 	stw	r17,4(sp)
    40e0:	dc000015 	stw	r16,0(sp)
    40e4:	4165383a 	mul	r18,r8,r5
    40e8:	31e3383a 	mul	r17,r6,r7
    40ec:	1012d43a 	srli	r9,r2,16
    40f0:	62d9383a 	mul	r12,r12,r11
    40f4:	181f883a 	mov	r15,r3
    40f8:	1280022e 	bgeu	r2,r10,4104 <__muldi3+0x74>
    40fc:	00800074 	movhi	r2,1
    4100:	6099883a 	add	r12,r12,r2
    4104:	624d883a 	add	r6,r12,r9
    4108:	9187883a 	add	r3,r18,r6
    410c:	88c7883a 	add	r3,r17,r3
    4110:	7805883a 	mov	r2,r15
    4114:	dc800217 	ldw	r18,8(sp)
    4118:	dc400117 	ldw	r17,4(sp)
    411c:	dc000017 	ldw	r16,0(sp)
    4120:	dec00304 	addi	sp,sp,12
    4124:	f800283a 	ret

00004128 <__clzsi2>:
    4128:	00bfffd4 	movui	r2,65535
    412c:	11000e36 	bltu	r2,r4,4168 <__clzsi2+0x40>
    4130:	00803fc4 	movi	r2,255
    4134:	01400204 	movi	r5,8
    4138:	0007883a 	mov	r3,zero
    413c:	11001036 	bltu	r2,r4,4180 <__clzsi2+0x58>
    4140:	000b883a 	mov	r5,zero
    4144:	20c6d83a 	srl	r3,r4,r3
    4148:	00800074 	movhi	r2,1
    414c:	10bdf904 	addi	r2,r2,-2076
    4150:	1887883a 	add	r3,r3,r2
    4154:	18800003 	ldbu	r2,0(r3)
    4158:	00c00804 	movi	r3,32
    415c:	2885883a 	add	r2,r5,r2
    4160:	1885c83a 	sub	r2,r3,r2
    4164:	f800283a 	ret
    4168:	01400404 	movi	r5,16
    416c:	00804034 	movhi	r2,256
    4170:	10bfffc4 	addi	r2,r2,-1
    4174:	2807883a 	mov	r3,r5
    4178:	113ff22e 	bgeu	r2,r4,4144 <__clzsi2+0x1c>
    417c:	01400604 	movi	r5,24
    4180:	2807883a 	mov	r3,r5
    4184:	20c6d83a 	srl	r3,r4,r3
    4188:	00800074 	movhi	r2,1
    418c:	10bdf904 	addi	r2,r2,-2076
    4190:	1887883a 	add	r3,r3,r2
    4194:	18800003 	ldbu	r2,0(r3)
    4198:	00c00804 	movi	r3,32
    419c:	2885883a 	add	r2,r5,r2
    41a0:	1885c83a 	sub	r2,r3,r2
    41a4:	f800283a 	ret

000041a8 <__unpack_f>:
    41a8:	21800017 	ldw	r6,0(r4)
    41ac:	00c02034 	movhi	r3,128
    41b0:	18ffffc4 	addi	r3,r3,-1
    41b4:	3004d5fa 	srli	r2,r6,23
    41b8:	3008d7fa 	srli	r4,r6,31
    41bc:	30ce703a 	and	r7,r6,r3
    41c0:	10c03fcc 	andi	r3,r2,255
    41c4:	29000115 	stw	r4,4(r5)
    41c8:	1800131e 	bne	r3,zero,4218 <__unpack_f+0x70>
    41cc:	38000f26 	beq	r7,zero,420c <__unpack_f+0x64>
    41d0:	380691fa 	slli	r3,r7,7
    41d4:	01bfe084 	movi	r6,-126
    41d8:	008000c4 	movi	r2,3
    41dc:	01100034 	movhi	r4,16384
    41e0:	213fffc4 	addi	r4,r4,-1
    41e4:	28800015 	stw	r2,0(r5)
    41e8:	29800215 	stw	r6,8(r5)
    41ec:	20c00536 	bltu	r4,r3,4204 <__unpack_f+0x5c>
    41f0:	3005883a 	mov	r2,r6
    41f4:	18c7883a 	add	r3,r3,r3
    41f8:	10bfffc4 	addi	r2,r2,-1
    41fc:	20fffd2e 	bgeu	r4,r3,41f4 <__unpack_f+0x4c>
    4200:	28800215 	stw	r2,8(r5)
    4204:	28c00315 	stw	r3,12(r5)
    4208:	f800283a 	ret
    420c:	00800084 	movi	r2,2
    4210:	28800015 	stw	r2,0(r5)
    4214:	f800283a 	ret
    4218:	00803fc4 	movi	r2,255
    421c:	18800826 	beq	r3,r2,4240 <__unpack_f+0x98>
    4220:	380491fa 	slli	r2,r7,7
    4224:	18ffe044 	addi	r3,r3,-127
    4228:	28c00215 	stw	r3,8(r5)
    422c:	10900034 	orhi	r2,r2,16384
    4230:	28800315 	stw	r2,12(r5)
    4234:	008000c4 	movi	r2,3
    4238:	28800015 	stw	r2,0(r5)
    423c:	f800283a 	ret
    4240:	3800031e 	bne	r7,zero,4250 <__unpack_f+0xa8>
    4244:	00800104 	movi	r2,4
    4248:	28800015 	stw	r2,0(r5)
    424c:	f800283a 	ret
    4250:	3080042c 	andhi	r2,r6,16
    4254:	10000426 	beq	r2,zero,4268 <__unpack_f+0xc0>
    4258:	00800044 	movi	r2,1
    425c:	28800015 	stw	r2,0(r5)
    4260:	29c00315 	stw	r7,12(r5)
    4264:	f800283a 	ret
    4268:	28000015 	stw	zero,0(r5)
    426c:	003ffc06 	br	4260 <__unpack_f+0xb8>

00004270 <__pack_d>:
    4270:	20c00017 	ldw	r3,0(r4)
    4274:	defffd04 	addi	sp,sp,-12
    4278:	dc000015 	stw	r16,0(sp)
    427c:	dc800215 	stw	r18,8(sp)
    4280:	dc400115 	stw	r17,4(sp)
    4284:	00800044 	movi	r2,1
    4288:	22000317 	ldw	r8,12(r4)
    428c:	001f883a 	mov	r15,zero
    4290:	22400417 	ldw	r9,16(r4)
    4294:	24000117 	ldw	r16,4(r4)
    4298:	10c0552e 	bgeu	r2,r3,43f0 <__pack_d+0x180>
    429c:	00800104 	movi	r2,4
    42a0:	18804f26 	beq	r3,r2,43e0 <__pack_d+0x170>
    42a4:	00800084 	movi	r2,2
    42a8:	18800226 	beq	r3,r2,42b4 <__pack_d+0x44>
    42ac:	4244b03a 	or	r2,r8,r9
    42b0:	10001a1e 	bne	r2,zero,431c <__pack_d+0xac>
    42b4:	000d883a 	mov	r6,zero
    42b8:	000f883a 	mov	r7,zero
    42bc:	0011883a 	mov	r8,zero
    42c0:	00800434 	movhi	r2,16
    42c4:	10bfffc4 	addi	r2,r2,-1
    42c8:	301d883a 	mov	r14,r6
    42cc:	3884703a 	and	r2,r7,r2
    42d0:	400a953a 	slli	r5,r8,20
    42d4:	79bffc2c 	andhi	r6,r15,65520
    42d8:	308cb03a 	or	r6,r6,r2
    42dc:	00e00434 	movhi	r3,32784
    42e0:	18ffffc4 	addi	r3,r3,-1
    42e4:	800497fa 	slli	r2,r16,31
    42e8:	30c6703a 	and	r3,r6,r3
    42ec:	1946b03a 	or	r3,r3,r5
    42f0:	01600034 	movhi	r5,32768
    42f4:	297fffc4 	addi	r5,r5,-1
    42f8:	194a703a 	and	r5,r3,r5
    42fc:	288ab03a 	or	r5,r5,r2
    4300:	2807883a 	mov	r3,r5
    4304:	7005883a 	mov	r2,r14
    4308:	dc800217 	ldw	r18,8(sp)
    430c:	dc400117 	ldw	r17,4(sp)
    4310:	dc000017 	ldw	r16,0(sp)
    4314:	dec00304 	addi	sp,sp,12
    4318:	f800283a 	ret
    431c:	21000217 	ldw	r4,8(r4)
    4320:	00bf0084 	movi	r2,-1022
    4324:	20803f16 	blt	r4,r2,4424 <__pack_d+0x1b4>
    4328:	0080ffc4 	movi	r2,1023
    432c:	11002c16 	blt	r2,r4,43e0 <__pack_d+0x170>
    4330:	00803fc4 	movi	r2,255
    4334:	408c703a 	and	r6,r8,r2
    4338:	00802004 	movi	r2,128
    433c:	0007883a 	mov	r3,zero
    4340:	000f883a 	mov	r7,zero
    4344:	2280ffc4 	addi	r10,r4,1023
    4348:	30801e26 	beq	r6,r2,43c4 <__pack_d+0x154>
    434c:	00801fc4 	movi	r2,127
    4350:	4089883a 	add	r4,r8,r2
    4354:	220d803a 	cmpltu	r6,r4,r8
    4358:	324d883a 	add	r6,r6,r9
    435c:	2011883a 	mov	r8,r4
    4360:	3013883a 	mov	r9,r6
    4364:	00880034 	movhi	r2,8192
    4368:	10bfffc4 	addi	r2,r2,-1
    436c:	12400d36 	bltu	r2,r9,43a4 <__pack_d+0x134>
    4370:	4804963a 	slli	r2,r9,24
    4374:	400cd23a 	srli	r6,r8,8
    4378:	480ed23a 	srli	r7,r9,8
    437c:	013fffc4 	movi	r4,-1
    4380:	118cb03a 	or	r6,r2,r6
    4384:	01400434 	movhi	r5,16
    4388:	297fffc4 	addi	r5,r5,-1
    438c:	3104703a 	and	r2,r6,r4
    4390:	3946703a 	and	r3,r7,r5
    4394:	5201ffcc 	andi	r8,r10,2047
    4398:	100d883a 	mov	r6,r2
    439c:	180f883a 	mov	r7,r3
    43a0:	003fc706 	br	42c0 <__pack_d+0x50>
    43a4:	480897fa 	slli	r4,r9,31
    43a8:	4004d07a 	srli	r2,r8,1
    43ac:	4806d07a 	srli	r3,r9,1
    43b0:	52800044 	addi	r10,r10,1
    43b4:	2084b03a 	or	r2,r4,r2
    43b8:	1011883a 	mov	r8,r2
    43bc:	1813883a 	mov	r9,r3
    43c0:	003feb06 	br	4370 <__pack_d+0x100>
    43c4:	383fe11e 	bne	r7,zero,434c <__pack_d+0xdc>
    43c8:	01004004 	movi	r4,256
    43cc:	4104703a 	and	r2,r8,r4
    43d0:	10c4b03a 	or	r2,r2,r3
    43d4:	103fe326 	beq	r2,zero,4364 <__pack_d+0xf4>
    43d8:	3005883a 	mov	r2,r6
    43dc:	003fdc06 	br	4350 <__pack_d+0xe0>
    43e0:	000d883a 	mov	r6,zero
    43e4:	000f883a 	mov	r7,zero
    43e8:	0201ffc4 	movi	r8,2047
    43ec:	003fb406 	br	42c0 <__pack_d+0x50>
    43f0:	0005883a 	mov	r2,zero
    43f4:	00c00234 	movhi	r3,8
    43f8:	408cb03a 	or	r6,r8,r2
    43fc:	48ceb03a 	or	r7,r9,r3
    4400:	013fffc4 	movi	r4,-1
    4404:	01400434 	movhi	r5,16
    4408:	297fffc4 	addi	r5,r5,-1
    440c:	3104703a 	and	r2,r6,r4
    4410:	3946703a 	and	r3,r7,r5
    4414:	100d883a 	mov	r6,r2
    4418:	180f883a 	mov	r7,r3
    441c:	0201ffc4 	movi	r8,2047
    4420:	003fa706 	br	42c0 <__pack_d+0x50>
    4424:	1109c83a 	sub	r4,r2,r4
    4428:	00800e04 	movi	r2,56
    442c:	11004316 	blt	r2,r4,453c <__pack_d+0x2cc>
    4430:	21fff804 	addi	r7,r4,-32
    4434:	38004516 	blt	r7,zero,454c <__pack_d+0x2dc>
    4438:	49d8d83a 	srl	r12,r9,r7
    443c:	001b883a 	mov	r13,zero
    4440:	0023883a 	mov	r17,zero
    4444:	01400044 	movi	r5,1
    4448:	0025883a 	mov	r18,zero
    444c:	38004716 	blt	r7,zero,456c <__pack_d+0x2fc>
    4450:	29d6983a 	sll	r11,r5,r7
    4454:	0015883a 	mov	r10,zero
    4458:	00bfffc4 	movi	r2,-1
    445c:	5089883a 	add	r4,r10,r2
    4460:	588b883a 	add	r5,r11,r2
    4464:	228d803a 	cmpltu	r6,r4,r10
    4468:	314b883a 	add	r5,r6,r5
    446c:	4104703a 	and	r2,r8,r4
    4470:	4946703a 	and	r3,r9,r5
    4474:	10c4b03a 	or	r2,r2,r3
    4478:	10000226 	beq	r2,zero,4484 <__pack_d+0x214>
    447c:	04400044 	movi	r17,1
    4480:	0025883a 	mov	r18,zero
    4484:	00803fc4 	movi	r2,255
    4488:	644eb03a 	or	r7,r12,r17
    448c:	3892703a 	and	r9,r7,r2
    4490:	00802004 	movi	r2,128
    4494:	6c90b03a 	or	r8,r13,r18
    4498:	0015883a 	mov	r10,zero
    449c:	48801626 	beq	r9,r2,44f8 <__pack_d+0x288>
    44a0:	01001fc4 	movi	r4,127
    44a4:	3905883a 	add	r2,r7,r4
    44a8:	11cd803a 	cmpltu	r6,r2,r7
    44ac:	320d883a 	add	r6,r6,r8
    44b0:	100f883a 	mov	r7,r2
    44b4:	00840034 	movhi	r2,4096
    44b8:	10bfffc4 	addi	r2,r2,-1
    44bc:	3011883a 	mov	r8,r6
    44c0:	0007883a 	mov	r3,zero
    44c4:	11801b36 	bltu	r2,r6,4534 <__pack_d+0x2c4>
    44c8:	4004963a 	slli	r2,r8,24
    44cc:	3808d23a 	srli	r4,r7,8
    44d0:	400ad23a 	srli	r5,r8,8
    44d4:	1813883a 	mov	r9,r3
    44d8:	1108b03a 	or	r4,r2,r4
    44dc:	00bfffc4 	movi	r2,-1
    44e0:	00c00434 	movhi	r3,16
    44e4:	18ffffc4 	addi	r3,r3,-1
    44e8:	208c703a 	and	r6,r4,r2
    44ec:	28ce703a 	and	r7,r5,r3
    44f0:	4a01ffcc 	andi	r8,r9,2047
    44f4:	003f7206 	br	42c0 <__pack_d+0x50>
    44f8:	503fe91e 	bne	r10,zero,44a0 <__pack_d+0x230>
    44fc:	01004004 	movi	r4,256
    4500:	3904703a 	and	r2,r7,r4
    4504:	0007883a 	mov	r3,zero
    4508:	10c4b03a 	or	r2,r2,r3
    450c:	10000626 	beq	r2,zero,4528 <__pack_d+0x2b8>
    4510:	3a45883a 	add	r2,r7,r9
    4514:	11cd803a 	cmpltu	r6,r2,r7
    4518:	320d883a 	add	r6,r6,r8
    451c:	100f883a 	mov	r7,r2
    4520:	3011883a 	mov	r8,r6
    4524:	0007883a 	mov	r3,zero
    4528:	00840034 	movhi	r2,4096
    452c:	10bfffc4 	addi	r2,r2,-1
    4530:	123fe52e 	bgeu	r2,r8,44c8 <__pack_d+0x258>
    4534:	00c00044 	movi	r3,1
    4538:	003fe306 	br	44c8 <__pack_d+0x258>
    453c:	0009883a 	mov	r4,zero
    4540:	0013883a 	mov	r9,zero
    4544:	000b883a 	mov	r5,zero
    4548:	003fe406 	br	44dc <__pack_d+0x26c>
    454c:	4a47883a 	add	r3,r9,r9
    4550:	008007c4 	movi	r2,31
    4554:	1105c83a 	sub	r2,r2,r4
    4558:	1886983a 	sll	r3,r3,r2
    455c:	4118d83a 	srl	r12,r8,r4
    4560:	491ad83a 	srl	r13,r9,r4
    4564:	1b18b03a 	or	r12,r3,r12
    4568:	003fb506 	br	4440 <__pack_d+0x1d0>
    456c:	2806d07a 	srli	r3,r5,1
    4570:	008007c4 	movi	r2,31
    4574:	1105c83a 	sub	r2,r2,r4
    4578:	1896d83a 	srl	r11,r3,r2
    457c:	2914983a 	sll	r10,r5,r4
    4580:	003fb506 	br	4458 <__pack_d+0x1e8>

00004584 <__unpack_d>:
    4584:	20c00117 	ldw	r3,4(r4)
    4588:	22400017 	ldw	r9,0(r4)
    458c:	00800434 	movhi	r2,16
    4590:	10bfffc4 	addi	r2,r2,-1
    4594:	1808d53a 	srli	r4,r3,20
    4598:	180cd7fa 	srli	r6,r3,31
    459c:	1894703a 	and	r10,r3,r2
    45a0:	2201ffcc 	andi	r8,r4,2047
    45a4:	281b883a 	mov	r13,r5
    45a8:	4817883a 	mov	r11,r9
    45ac:	29800115 	stw	r6,4(r5)
    45b0:	5019883a 	mov	r12,r10
    45b4:	40001e1e 	bne	r8,zero,4630 <__unpack_d+0xac>
    45b8:	4a84b03a 	or	r2,r9,r10
    45bc:	10001926 	beq	r2,zero,4624 <__unpack_d+0xa0>
    45c0:	4804d63a 	srli	r2,r9,24
    45c4:	500c923a 	slli	r6,r10,8
    45c8:	013f0084 	movi	r4,-1022
    45cc:	00c40034 	movhi	r3,4096
    45d0:	18ffffc4 	addi	r3,r3,-1
    45d4:	118cb03a 	or	r6,r2,r6
    45d8:	008000c4 	movi	r2,3
    45dc:	480a923a 	slli	r5,r9,8
    45e0:	68800015 	stw	r2,0(r13)
    45e4:	69000215 	stw	r4,8(r13)
    45e8:	19800b36 	bltu	r3,r6,4618 <__unpack_d+0x94>
    45ec:	200f883a 	mov	r7,r4
    45f0:	1811883a 	mov	r8,r3
    45f4:	2945883a 	add	r2,r5,r5
    45f8:	1149803a 	cmpltu	r4,r2,r5
    45fc:	3187883a 	add	r3,r6,r6
    4600:	20c9883a 	add	r4,r4,r3
    4604:	100b883a 	mov	r5,r2
    4608:	200d883a 	mov	r6,r4
    460c:	39ffffc4 	addi	r7,r7,-1
    4610:	413ff82e 	bgeu	r8,r4,45f4 <__unpack_d+0x70>
    4614:	69c00215 	stw	r7,8(r13)
    4618:	69800415 	stw	r6,16(r13)
    461c:	69400315 	stw	r5,12(r13)
    4620:	f800283a 	ret
    4624:	00800084 	movi	r2,2
    4628:	28800015 	stw	r2,0(r5)
    462c:	f800283a 	ret
    4630:	0081ffc4 	movi	r2,2047
    4634:	40800f26 	beq	r8,r2,4674 <__unpack_d+0xf0>
    4638:	480cd63a 	srli	r6,r9,24
    463c:	5006923a 	slli	r3,r10,8
    4640:	4804923a 	slli	r2,r9,8
    4644:	0009883a 	mov	r4,zero
    4648:	30c6b03a 	or	r3,r6,r3
    464c:	01440034 	movhi	r5,4096
    4650:	110cb03a 	or	r6,r2,r4
    4654:	423f0044 	addi	r8,r8,-1023
    4658:	194eb03a 	or	r7,r3,r5
    465c:	008000c4 	movi	r2,3
    4660:	69c00415 	stw	r7,16(r13)
    4664:	6a000215 	stw	r8,8(r13)
    4668:	68800015 	stw	r2,0(r13)
    466c:	69800315 	stw	r6,12(r13)
    4670:	f800283a 	ret
    4674:	4a84b03a 	or	r2,r9,r10
    4678:	1000031e 	bne	r2,zero,4688 <__unpack_d+0x104>
    467c:	00800104 	movi	r2,4
    4680:	28800015 	stw	r2,0(r5)
    4684:	f800283a 	ret
    4688:	0009883a 	mov	r4,zero
    468c:	01400234 	movhi	r5,8
    4690:	4904703a 	and	r2,r9,r4
    4694:	5146703a 	and	r3,r10,r5
    4698:	10c4b03a 	or	r2,r2,r3
    469c:	10000526 	beq	r2,zero,46b4 <__unpack_d+0x130>
    46a0:	00800044 	movi	r2,1
    46a4:	68800015 	stw	r2,0(r13)
    46a8:	6b000415 	stw	r12,16(r13)
    46ac:	6ac00315 	stw	r11,12(r13)
    46b0:	f800283a 	ret
    46b4:	68000015 	stw	zero,0(r13)
    46b8:	003ffb06 	br	46a8 <__unpack_d+0x124>

000046bc <__fpcmp_parts_d>:
    46bc:	21800017 	ldw	r6,0(r4)
    46c0:	00c00044 	movi	r3,1
    46c4:	19800a2e 	bgeu	r3,r6,46f0 <__fpcmp_parts_d+0x34>
    46c8:	28800017 	ldw	r2,0(r5)
    46cc:	1880082e 	bgeu	r3,r2,46f0 <__fpcmp_parts_d+0x34>
    46d0:	00c00104 	movi	r3,4
    46d4:	30c02626 	beq	r6,r3,4770 <__fpcmp_parts_d+0xb4>
    46d8:	10c02226 	beq	r2,r3,4764 <__fpcmp_parts_d+0xa8>
    46dc:	00c00084 	movi	r3,2
    46e0:	30c00526 	beq	r6,r3,46f8 <__fpcmp_parts_d+0x3c>
    46e4:	10c0071e 	bne	r2,r3,4704 <__fpcmp_parts_d+0x48>
    46e8:	20800117 	ldw	r2,4(r4)
    46ec:	1000091e 	bne	r2,zero,4714 <__fpcmp_parts_d+0x58>
    46f0:	00800044 	movi	r2,1
    46f4:	f800283a 	ret
    46f8:	10c01a1e 	bne	r2,r3,4764 <__fpcmp_parts_d+0xa8>
    46fc:	0005883a 	mov	r2,zero
    4700:	f800283a 	ret
    4704:	22000117 	ldw	r8,4(r4)
    4708:	28800117 	ldw	r2,4(r5)
    470c:	40800326 	beq	r8,r2,471c <__fpcmp_parts_d+0x60>
    4710:	403ff726 	beq	r8,zero,46f0 <__fpcmp_parts_d+0x34>
    4714:	00bfffc4 	movi	r2,-1
    4718:	f800283a 	ret
    471c:	20c00217 	ldw	r3,8(r4)
    4720:	28800217 	ldw	r2,8(r5)
    4724:	10fffa16 	blt	r2,r3,4710 <__fpcmp_parts_d+0x54>
    4728:	18800916 	blt	r3,r2,4750 <__fpcmp_parts_d+0x94>
    472c:	21c00417 	ldw	r7,16(r4)
    4730:	28c00417 	ldw	r3,16(r5)
    4734:	21800317 	ldw	r6,12(r4)
    4738:	28800317 	ldw	r2,12(r5)
    473c:	19fff436 	bltu	r3,r7,4710 <__fpcmp_parts_d+0x54>
    4740:	38c00526 	beq	r7,r3,4758 <__fpcmp_parts_d+0x9c>
    4744:	38c00236 	bltu	r7,r3,4750 <__fpcmp_parts_d+0x94>
    4748:	19ffec1e 	bne	r3,r7,46fc <__fpcmp_parts_d+0x40>
    474c:	30bfeb2e 	bgeu	r6,r2,46fc <__fpcmp_parts_d+0x40>
    4750:	403fe71e 	bne	r8,zero,46f0 <__fpcmp_parts_d+0x34>
    4754:	003fef06 	br	4714 <__fpcmp_parts_d+0x58>
    4758:	11bffa2e 	bgeu	r2,r6,4744 <__fpcmp_parts_d+0x88>
    475c:	403fe426 	beq	r8,zero,46f0 <__fpcmp_parts_d+0x34>
    4760:	003fec06 	br	4714 <__fpcmp_parts_d+0x58>
    4764:	28800117 	ldw	r2,4(r5)
    4768:	103fe11e 	bne	r2,zero,46f0 <__fpcmp_parts_d+0x34>
    476c:	003fe906 	br	4714 <__fpcmp_parts_d+0x58>
    4770:	11bfdd1e 	bne	r2,r6,46e8 <__fpcmp_parts_d+0x2c>
    4774:	28c00117 	ldw	r3,4(r5)
    4778:	20800117 	ldw	r2,4(r4)
    477c:	1885c83a 	sub	r2,r3,r2
    4780:	f800283a 	ret

00004784 <__errno>:
    4784:	00c000b4 	movhi	r3,2
    4788:	18e6e504 	addi	r3,r3,-25708
    478c:	18800017 	ldw	r2,0(r3)
    4790:	f800283a 	ret

00004794 <free>:
    4794:	008000b4 	movhi	r2,2
    4798:	10a6e504 	addi	r2,r2,-25708
    479c:	200b883a 	mov	r5,r4
    47a0:	11000017 	ldw	r4,0(r2)
    47a4:	00090c81 	jmpi	90c8 <_free_r>

000047a8 <malloc>:
    47a8:	008000b4 	movhi	r2,2
    47ac:	10a6e504 	addi	r2,r2,-25708
    47b0:	200b883a 	mov	r5,r4
    47b4:	11000017 	ldw	r4,0(r2)
    47b8:	00047bc1 	jmpi	47bc <_malloc_r>

000047bc <_malloc_r>:
    47bc:	defff604 	addi	sp,sp,-40
    47c0:	28c002c4 	addi	r3,r5,11
    47c4:	00800584 	movi	r2,22
    47c8:	dc800215 	stw	r18,8(sp)
    47cc:	dfc00915 	stw	ra,36(sp)
    47d0:	df000815 	stw	fp,32(sp)
    47d4:	ddc00715 	stw	r23,28(sp)
    47d8:	dd800615 	stw	r22,24(sp)
    47dc:	dd400515 	stw	r21,20(sp)
    47e0:	dd000415 	stw	r20,16(sp)
    47e4:	dcc00315 	stw	r19,12(sp)
    47e8:	dc400115 	stw	r17,4(sp)
    47ec:	dc000015 	stw	r16,0(sp)
    47f0:	2025883a 	mov	r18,r4
    47f4:	10c01236 	bltu	r2,r3,4840 <_malloc_r+0x84>
    47f8:	04400404 	movi	r17,16
    47fc:	8940142e 	bgeu	r17,r5,4850 <_malloc_r+0x94>
    4800:	00800304 	movi	r2,12
    4804:	0007883a 	mov	r3,zero
    4808:	90800015 	stw	r2,0(r18)
    480c:	1805883a 	mov	r2,r3
    4810:	dfc00917 	ldw	ra,36(sp)
    4814:	df000817 	ldw	fp,32(sp)
    4818:	ddc00717 	ldw	r23,28(sp)
    481c:	dd800617 	ldw	r22,24(sp)
    4820:	dd400517 	ldw	r21,20(sp)
    4824:	dd000417 	ldw	r20,16(sp)
    4828:	dcc00317 	ldw	r19,12(sp)
    482c:	dc800217 	ldw	r18,8(sp)
    4830:	dc400117 	ldw	r17,4(sp)
    4834:	dc000017 	ldw	r16,0(sp)
    4838:	dec00a04 	addi	sp,sp,40
    483c:	f800283a 	ret
    4840:	00bffe04 	movi	r2,-8
    4844:	18a2703a 	and	r17,r3,r2
    4848:	883fed16 	blt	r17,zero,4800 <_malloc_r+0x44>
    484c:	897fec36 	bltu	r17,r5,4800 <_malloc_r+0x44>
    4850:	9009883a 	mov	r4,r18
    4854:	000d0300 	call	d030 <__malloc_lock>
    4858:	00807dc4 	movi	r2,503
    485c:	14402b2e 	bgeu	r2,r17,490c <_malloc_r+0x150>
    4860:	8806d27a 	srli	r3,r17,9
    4864:	18003f1e 	bne	r3,zero,4964 <_malloc_r+0x1a8>
    4868:	880cd0fa 	srli	r6,r17,3
    486c:	300490fa 	slli	r2,r6,3
    4870:	02c000b4 	movhi	r11,2
    4874:	5ae03704 	addi	r11,r11,-32548
    4878:	12cb883a 	add	r5,r2,r11
    487c:	2c000317 	ldw	r16,12(r5)
    4880:	580f883a 	mov	r7,r11
    4884:	2c00041e 	bne	r5,r16,4898 <_malloc_r+0xdc>
    4888:	00000a06 	br	48b4 <_malloc_r+0xf8>
    488c:	1800860e 	bge	r3,zero,4aa8 <_malloc_r+0x2ec>
    4890:	84000317 	ldw	r16,12(r16)
    4894:	2c000726 	beq	r5,r16,48b4 <_malloc_r+0xf8>
    4898:	80800117 	ldw	r2,4(r16)
    489c:	00ffff04 	movi	r3,-4
    48a0:	10c8703a 	and	r4,r2,r3
    48a4:	2447c83a 	sub	r3,r4,r17
    48a8:	008003c4 	movi	r2,15
    48ac:	10fff70e 	bge	r2,r3,488c <_malloc_r+0xd0>
    48b0:	31bfffc4 	addi	r6,r6,-1
    48b4:	32400044 	addi	r9,r6,1
    48b8:	028000b4 	movhi	r10,2
    48bc:	52a03904 	addi	r10,r10,-32540
    48c0:	54000217 	ldw	r16,8(r10)
    48c4:	8280a026 	beq	r16,r10,4b48 <_malloc_r+0x38c>
    48c8:	80800117 	ldw	r2,4(r16)
    48cc:	00ffff04 	movi	r3,-4
    48d0:	10ca703a 	and	r5,r2,r3
    48d4:	2c4dc83a 	sub	r6,r5,r17
    48d8:	008003c4 	movi	r2,15
    48dc:	11808316 	blt	r2,r6,4aec <_malloc_r+0x330>
    48e0:	52800315 	stw	r10,12(r10)
    48e4:	52800215 	stw	r10,8(r10)
    48e8:	30002916 	blt	r6,zero,4990 <_malloc_r+0x1d4>
    48ec:	8147883a 	add	r3,r16,r5
    48f0:	18800117 	ldw	r2,4(r3)
    48f4:	9009883a 	mov	r4,r18
    48f8:	10800054 	ori	r2,r2,1
    48fc:	18800115 	stw	r2,4(r3)
    4900:	000d0340 	call	d034 <__malloc_unlock>
    4904:	80c00204 	addi	r3,r16,8
    4908:	003fc006 	br	480c <_malloc_r+0x50>
    490c:	02c000b4 	movhi	r11,2
    4910:	5ae03704 	addi	r11,r11,-32548
    4914:	8ac5883a 	add	r2,r17,r11
    4918:	14000317 	ldw	r16,12(r2)
    491c:	580f883a 	mov	r7,r11
    4920:	8806d0fa 	srli	r3,r17,3
    4924:	14006c26 	beq	r2,r16,4ad8 <_malloc_r+0x31c>
    4928:	80c00117 	ldw	r3,4(r16)
    492c:	00bfff04 	movi	r2,-4
    4930:	81800317 	ldw	r6,12(r16)
    4934:	1886703a 	and	r3,r3,r2
    4938:	80c7883a 	add	r3,r16,r3
    493c:	18800117 	ldw	r2,4(r3)
    4940:	81400217 	ldw	r5,8(r16)
    4944:	9009883a 	mov	r4,r18
    4948:	10800054 	ori	r2,r2,1
    494c:	18800115 	stw	r2,4(r3)
    4950:	31400215 	stw	r5,8(r6)
    4954:	29800315 	stw	r6,12(r5)
    4958:	000d0340 	call	d034 <__malloc_unlock>
    495c:	80c00204 	addi	r3,r16,8
    4960:	003faa06 	br	480c <_malloc_r+0x50>
    4964:	00800104 	movi	r2,4
    4968:	10c0052e 	bgeu	r2,r3,4980 <_malloc_r+0x1c4>
    496c:	00800504 	movi	r2,20
    4970:	10c07836 	bltu	r2,r3,4b54 <_malloc_r+0x398>
    4974:	198016c4 	addi	r6,r3,91
    4978:	300490fa 	slli	r2,r6,3
    497c:	003fbc06 	br	4870 <_malloc_r+0xb4>
    4980:	8804d1ba 	srli	r2,r17,6
    4984:	11800e04 	addi	r6,r2,56
    4988:	300490fa 	slli	r2,r6,3
    498c:	003fb806 	br	4870 <_malloc_r+0xb4>
    4990:	00807fc4 	movi	r2,511
    4994:	1140bb36 	bltu	r2,r5,4c84 <_malloc_r+0x4c8>
    4998:	2806d0fa 	srli	r3,r5,3
    499c:	573ffe04 	addi	fp,r10,-8
    49a0:	00800044 	movi	r2,1
    49a4:	180890fa 	slli	r4,r3,3
    49a8:	1807d0ba 	srai	r3,r3,2
    49ac:	e1c00117 	ldw	r7,4(fp)
    49b0:	5909883a 	add	r4,r11,r4
    49b4:	21400217 	ldw	r5,8(r4)
    49b8:	10c4983a 	sll	r2,r2,r3
    49bc:	81000315 	stw	r4,12(r16)
    49c0:	81400215 	stw	r5,8(r16)
    49c4:	388eb03a 	or	r7,r7,r2
    49c8:	2c000315 	stw	r16,12(r5)
    49cc:	24000215 	stw	r16,8(r4)
    49d0:	e1c00115 	stw	r7,4(fp)
    49d4:	4807883a 	mov	r3,r9
    49d8:	4800cd16 	blt	r9,zero,4d10 <_malloc_r+0x554>
    49dc:	1807d0ba 	srai	r3,r3,2
    49e0:	00800044 	movi	r2,1
    49e4:	10c8983a 	sll	r4,r2,r3
    49e8:	39004436 	bltu	r7,r4,4afc <_malloc_r+0x340>
    49ec:	21c4703a 	and	r2,r4,r7
    49f0:	10000a1e 	bne	r2,zero,4a1c <_malloc_r+0x260>
    49f4:	2109883a 	add	r4,r4,r4
    49f8:	00bfff04 	movi	r2,-4
    49fc:	4884703a 	and	r2,r9,r2
    4a00:	3906703a 	and	r3,r7,r4
    4a04:	12400104 	addi	r9,r2,4
    4a08:	1800041e 	bne	r3,zero,4a1c <_malloc_r+0x260>
    4a0c:	2109883a 	add	r4,r4,r4
    4a10:	3904703a 	and	r2,r7,r4
    4a14:	4a400104 	addi	r9,r9,4
    4a18:	103ffc26 	beq	r2,zero,4a0c <_malloc_r+0x250>
    4a1c:	480490fa 	slli	r2,r9,3
    4a20:	4819883a 	mov	r12,r9
    4a24:	023fff04 	movi	r8,-4
    4a28:	589b883a 	add	r13,r11,r2
    4a2c:	6807883a 	mov	r3,r13
    4a30:	014003c4 	movi	r5,15
    4a34:	1c000317 	ldw	r16,12(r3)
    4a38:	1c00041e 	bne	r3,r16,4a4c <_malloc_r+0x290>
    4a3c:	0000a706 	br	4cdc <_malloc_r+0x520>
    4a40:	3000ab0e 	bge	r6,zero,4cf0 <_malloc_r+0x534>
    4a44:	84000317 	ldw	r16,12(r16)
    4a48:	1c00a426 	beq	r3,r16,4cdc <_malloc_r+0x520>
    4a4c:	80800117 	ldw	r2,4(r16)
    4a50:	1204703a 	and	r2,r2,r8
    4a54:	144dc83a 	sub	r6,r2,r17
    4a58:	29bff90e 	bge	r5,r6,4a40 <_malloc_r+0x284>
    4a5c:	81000317 	ldw	r4,12(r16)
    4a60:	80c00217 	ldw	r3,8(r16)
    4a64:	89400054 	ori	r5,r17,1
    4a68:	8445883a 	add	r2,r16,r17
    4a6c:	20c00215 	stw	r3,8(r4)
    4a70:	19000315 	stw	r4,12(r3)
    4a74:	81400115 	stw	r5,4(r16)
    4a78:	1187883a 	add	r3,r2,r6
    4a7c:	31000054 	ori	r4,r6,1
    4a80:	50800315 	stw	r2,12(r10)
    4a84:	50800215 	stw	r2,8(r10)
    4a88:	19800015 	stw	r6,0(r3)
    4a8c:	11000115 	stw	r4,4(r2)
    4a90:	12800215 	stw	r10,8(r2)
    4a94:	12800315 	stw	r10,12(r2)
    4a98:	9009883a 	mov	r4,r18
    4a9c:	000d0340 	call	d034 <__malloc_unlock>
    4aa0:	80c00204 	addi	r3,r16,8
    4aa4:	003f5906 	br	480c <_malloc_r+0x50>
    4aa8:	8109883a 	add	r4,r16,r4
    4aac:	20800117 	ldw	r2,4(r4)
    4ab0:	80c00217 	ldw	r3,8(r16)
    4ab4:	81400317 	ldw	r5,12(r16)
    4ab8:	10800054 	ori	r2,r2,1
    4abc:	20800115 	stw	r2,4(r4)
    4ac0:	28c00215 	stw	r3,8(r5)
    4ac4:	19400315 	stw	r5,12(r3)
    4ac8:	9009883a 	mov	r4,r18
    4acc:	000d0340 	call	d034 <__malloc_unlock>
    4ad0:	80c00204 	addi	r3,r16,8
    4ad4:	003f4d06 	br	480c <_malloc_r+0x50>
    4ad8:	80800204 	addi	r2,r16,8
    4adc:	14000317 	ldw	r16,12(r2)
    4ae0:	143f911e 	bne	r2,r16,4928 <_malloc_r+0x16c>
    4ae4:	1a400084 	addi	r9,r3,2
    4ae8:	003f7306 	br	48b8 <_malloc_r+0xfc>
    4aec:	88c00054 	ori	r3,r17,1
    4af0:	8445883a 	add	r2,r16,r17
    4af4:	80c00115 	stw	r3,4(r16)
    4af8:	003fdf06 	br	4a78 <_malloc_r+0x2bc>
    4afc:	e4000217 	ldw	r16,8(fp)
    4b00:	00bfff04 	movi	r2,-4
    4b04:	80c00117 	ldw	r3,4(r16)
    4b08:	802d883a 	mov	r22,r16
    4b0c:	18aa703a 	and	r21,r3,r2
    4b10:	ac401636 	bltu	r21,r17,4b6c <_malloc_r+0x3b0>
    4b14:	ac49c83a 	sub	r4,r21,r17
    4b18:	008003c4 	movi	r2,15
    4b1c:	1100130e 	bge	r2,r4,4b6c <_malloc_r+0x3b0>
    4b20:	88800054 	ori	r2,r17,1
    4b24:	8447883a 	add	r3,r16,r17
    4b28:	80800115 	stw	r2,4(r16)
    4b2c:	20800054 	ori	r2,r4,1
    4b30:	18800115 	stw	r2,4(r3)
    4b34:	e0c00215 	stw	r3,8(fp)
    4b38:	9009883a 	mov	r4,r18
    4b3c:	000d0340 	call	d034 <__malloc_unlock>
    4b40:	80c00204 	addi	r3,r16,8
    4b44:	003f3106 	br	480c <_malloc_r+0x50>
    4b48:	39c00117 	ldw	r7,4(r7)
    4b4c:	573ffe04 	addi	fp,r10,-8
    4b50:	003fa006 	br	49d4 <_malloc_r+0x218>
    4b54:	00801504 	movi	r2,84
    4b58:	10c06736 	bltu	r2,r3,4cf8 <_malloc_r+0x53c>
    4b5c:	8804d33a 	srli	r2,r17,12
    4b60:	11801b84 	addi	r6,r2,110
    4b64:	300490fa 	slli	r2,r6,3
    4b68:	003f4106 	br	4870 <_malloc_r+0xb4>
    4b6c:	d087ff17 	ldw	r2,8188(gp)
    4b70:	d0e01d17 	ldw	r3,-32652(gp)
    4b74:	053fffc4 	movi	r20,-1
    4b78:	10800404 	addi	r2,r2,16
    4b7c:	88a7883a 	add	r19,r17,r2
    4b80:	1d000326 	beq	r3,r20,4b90 <_malloc_r+0x3d4>
    4b84:	98c3ffc4 	addi	r3,r19,4095
    4b88:	00bc0004 	movi	r2,-4096
    4b8c:	18a6703a 	and	r19,r3,r2
    4b90:	9009883a 	mov	r4,r18
    4b94:	980b883a 	mov	r5,r19
    4b98:	00050280 	call	5028 <_sbrk_r>
    4b9c:	1009883a 	mov	r4,r2
    4ba0:	15000426 	beq	r2,r20,4bb4 <_malloc_r+0x3f8>
    4ba4:	854b883a 	add	r5,r16,r21
    4ba8:	1029883a 	mov	r20,r2
    4bac:	11405a2e 	bgeu	r2,r5,4d18 <_malloc_r+0x55c>
    4bb0:	87000c26 	beq	r16,fp,4be4 <_malloc_r+0x428>
    4bb4:	e4000217 	ldw	r16,8(fp)
    4bb8:	80c00117 	ldw	r3,4(r16)
    4bbc:	00bfff04 	movi	r2,-4
    4bc0:	1884703a 	and	r2,r3,r2
    4bc4:	14400336 	bltu	r2,r17,4bd4 <_malloc_r+0x418>
    4bc8:	1449c83a 	sub	r4,r2,r17
    4bcc:	008003c4 	movi	r2,15
    4bd0:	113fd316 	blt	r2,r4,4b20 <_malloc_r+0x364>
    4bd4:	9009883a 	mov	r4,r18
    4bd8:	000d0340 	call	d034 <__malloc_unlock>
    4bdc:	0007883a 	mov	r3,zero
    4be0:	003f0a06 	br	480c <_malloc_r+0x50>
    4be4:	05c00274 	movhi	r23,9
    4be8:	bddd3b04 	addi	r23,r23,29932
    4bec:	b8800017 	ldw	r2,0(r23)
    4bf0:	988d883a 	add	r6,r19,r2
    4bf4:	b9800015 	stw	r6,0(r23)
    4bf8:	d0e01d17 	ldw	r3,-32652(gp)
    4bfc:	00bfffc4 	movi	r2,-1
    4c00:	18808e26 	beq	r3,r2,4e3c <_malloc_r+0x680>
    4c04:	2145c83a 	sub	r2,r4,r5
